
rtarget:     file format elf64-x86-64


Disassembly of section .init:

0000000000400c40 <_init>:
  400c40:	48 83 ec 08          	sub    $0x8,%rsp
  400c44:	e8 63 02 00 00       	callq  400eac <call_gmon_start>
  400c49:	e8 72 03 00 00       	callq  400fc0 <frame_dummy>
  400c4e:	e8 2d 22 00 00       	callq  402e80 <__do_global_ctors_aux>
  400c53:	48 83 c4 08          	add    $0x8,%rsp
  400c57:	c3                   	retq   

Disassembly of section .plt:

0000000000400c58 <printf@plt-0x10>:
  400c58:	ff 35 ea 3a 20 00    	pushq  0x203aea(%rip)        # 604748 <_GLOBAL_OFFSET_TABLE_+0x8>
  400c5e:	ff 25 ec 3a 20 00    	jmpq   *0x203aec(%rip)        # 604750 <_GLOBAL_OFFSET_TABLE_+0x10>
  400c64:	0f 1f 40 00          	nopl   0x0(%rax)

0000000000400c68 <printf@plt>:
  400c68:	ff 25 ea 3a 20 00    	jmpq   *0x203aea(%rip)        # 604758 <_GLOBAL_OFFSET_TABLE_+0x18>
  400c6e:	68 00 00 00 00       	pushq  $0x0
  400c73:	e9 e0 ff ff ff       	jmpq   400c58 <_init+0x18>

0000000000400c78 <memset@plt>:
  400c78:	ff 25 e2 3a 20 00    	jmpq   *0x203ae2(%rip)        # 604760 <_GLOBAL_OFFSET_TABLE_+0x20>
  400c7e:	68 01 00 00 00       	pushq  $0x1
  400c83:	e9 d0 ff ff ff       	jmpq   400c58 <_init+0x18>

0000000000400c88 <close@plt>:
  400c88:	ff 25 da 3a 20 00    	jmpq   *0x203ada(%rip)        # 604768 <_GLOBAL_OFFSET_TABLE_+0x28>
  400c8e:	68 02 00 00 00       	pushq  $0x2
  400c93:	e9 c0 ff ff ff       	jmpq   400c58 <_init+0x18>

0000000000400c98 <gethostbyname@plt>:
  400c98:	ff 25 d2 3a 20 00    	jmpq   *0x203ad2(%rip)        # 604770 <_GLOBAL_OFFSET_TABLE_+0x30>
  400c9e:	68 03 00 00 00       	pushq  $0x3
  400ca3:	e9 b0 ff ff ff       	jmpq   400c58 <_init+0x18>

0000000000400ca8 <puts@plt>:
  400ca8:	ff 25 ca 3a 20 00    	jmpq   *0x203aca(%rip)        # 604778 <_GLOBAL_OFFSET_TABLE_+0x38>
  400cae:	68 04 00 00 00       	pushq  $0x4
  400cb3:	e9 a0 ff ff ff       	jmpq   400c58 <_init+0x18>

0000000000400cb8 <__isoc99_sscanf@plt>:
  400cb8:	ff 25 c2 3a 20 00    	jmpq   *0x203ac2(%rip)        # 604780 <_GLOBAL_OFFSET_TABLE_+0x40>
  400cbe:	68 05 00 00 00       	pushq  $0x5
  400cc3:	e9 90 ff ff ff       	jmpq   400c58 <_init+0x18>

0000000000400cc8 <exit@plt>:
  400cc8:	ff 25 ba 3a 20 00    	jmpq   *0x203aba(%rip)        # 604788 <_GLOBAL_OFFSET_TABLE_+0x48>
  400cce:	68 06 00 00 00       	pushq  $0x6
  400cd3:	e9 80 ff ff ff       	jmpq   400c58 <_init+0x18>

0000000000400cd8 <strcasecmp@plt>:
  400cd8:	ff 25 b2 3a 20 00    	jmpq   *0x203ab2(%rip)        # 604790 <_GLOBAL_OFFSET_TABLE_+0x50>
  400cde:	68 07 00 00 00       	pushq  $0x7
  400ce3:	e9 70 ff ff ff       	jmpq   400c58 <_init+0x18>

0000000000400ce8 <getopt@plt>:
  400ce8:	ff 25 aa 3a 20 00    	jmpq   *0x203aaa(%rip)        # 604798 <_GLOBAL_OFFSET_TABLE_+0x58>
  400cee:	68 08 00 00 00       	pushq  $0x8
  400cf3:	e9 60 ff ff ff       	jmpq   400c58 <_init+0x18>

0000000000400cf8 <read@plt>:
  400cf8:	ff 25 a2 3a 20 00    	jmpq   *0x203aa2(%rip)        # 6047a0 <_GLOBAL_OFFSET_TABLE_+0x60>
  400cfe:	68 09 00 00 00       	pushq  $0x9
  400d03:	e9 50 ff ff ff       	jmpq   400c58 <_init+0x18>

0000000000400d08 <strncmp@plt>:
  400d08:	ff 25 9a 3a 20 00    	jmpq   *0x203a9a(%rip)        # 6047a8 <_GLOBAL_OFFSET_TABLE_+0x68>
  400d0e:	68 0a 00 00 00       	pushq  $0xa
  400d13:	e9 40 ff ff ff       	jmpq   400c58 <_init+0x18>

0000000000400d18 <fopen@plt>:
  400d18:	ff 25 92 3a 20 00    	jmpq   *0x203a92(%rip)        # 6047b0 <_GLOBAL_OFFSET_TABLE_+0x70>
  400d1e:	68 0b 00 00 00       	pushq  $0xb
  400d23:	e9 30 ff ff ff       	jmpq   400c58 <_init+0x18>

0000000000400d28 <__libc_start_main@plt>:
  400d28:	ff 25 8a 3a 20 00    	jmpq   *0x203a8a(%rip)        # 6047b8 <_GLOBAL_OFFSET_TABLE_+0x78>
  400d2e:	68 0c 00 00 00       	pushq  $0xc
  400d33:	e9 20 ff ff ff       	jmpq   400c58 <_init+0x18>

0000000000400d38 <srandom@plt>:
  400d38:	ff 25 82 3a 20 00    	jmpq   *0x203a82(%rip)        # 6047c0 <_GLOBAL_OFFSET_TABLE_+0x80>
  400d3e:	68 0d 00 00 00       	pushq  $0xd
  400d43:	e9 10 ff ff ff       	jmpq   400c58 <_init+0x18>

0000000000400d48 <_IO_getc@plt>:
  400d48:	ff 25 7a 3a 20 00    	jmpq   *0x203a7a(%rip)        # 6047c8 <_GLOBAL_OFFSET_TABLE_+0x88>
  400d4e:	68 0e 00 00 00       	pushq  $0xe
  400d53:	e9 00 ff ff ff       	jmpq   400c58 <_init+0x18>

0000000000400d58 <bcopy@plt>:
  400d58:	ff 25 72 3a 20 00    	jmpq   *0x203a72(%rip)        # 6047d0 <_GLOBAL_OFFSET_TABLE_+0x90>
  400d5e:	68 0f 00 00 00       	pushq  $0xf
  400d63:	e9 f0 fe ff ff       	jmpq   400c58 <_init+0x18>

0000000000400d68 <sprintf@plt>:
  400d68:	ff 25 6a 3a 20 00    	jmpq   *0x203a6a(%rip)        # 6047d8 <_GLOBAL_OFFSET_TABLE_+0x98>
  400d6e:	68 10 00 00 00       	pushq  $0x10
  400d73:	e9 e0 fe ff ff       	jmpq   400c58 <_init+0x18>

0000000000400d78 <strtol@plt>:
  400d78:	ff 25 62 3a 20 00    	jmpq   *0x203a62(%rip)        # 6047e0 <_GLOBAL_OFFSET_TABLE_+0xa0>
  400d7e:	68 11 00 00 00       	pushq  $0x11
  400d83:	e9 d0 fe ff ff       	jmpq   400c58 <_init+0x18>

0000000000400d88 <connect@plt>:
  400d88:	ff 25 5a 3a 20 00    	jmpq   *0x203a5a(%rip)        # 6047e8 <_GLOBAL_OFFSET_TABLE_+0xa8>
  400d8e:	68 12 00 00 00       	pushq  $0x12
  400d93:	e9 c0 fe ff ff       	jmpq   400c58 <_init+0x18>

0000000000400d98 <gethostname@plt>:
  400d98:	ff 25 52 3a 20 00    	jmpq   *0x203a52(%rip)        # 6047f0 <_GLOBAL_OFFSET_TABLE_+0xb0>
  400d9e:	68 13 00 00 00       	pushq  $0x13
  400da3:	e9 b0 fe ff ff       	jmpq   400c58 <_init+0x18>

0000000000400da8 <memcpy@plt>:
  400da8:	ff 25 4a 3a 20 00    	jmpq   *0x203a4a(%rip)        # 6047f8 <_GLOBAL_OFFSET_TABLE_+0xb8>
  400dae:	68 14 00 00 00       	pushq  $0x14
  400db3:	e9 a0 fe ff ff       	jmpq   400c58 <_init+0x18>

0000000000400db8 <signal@plt>:
  400db8:	ff 25 42 3a 20 00    	jmpq   *0x203a42(%rip)        # 604800 <_GLOBAL_OFFSET_TABLE_+0xc0>
  400dbe:	68 15 00 00 00       	pushq  $0x15
  400dc3:	e9 90 fe ff ff       	jmpq   400c58 <_init+0x18>

0000000000400dc8 <socket@plt>:
  400dc8:	ff 25 3a 3a 20 00    	jmpq   *0x203a3a(%rip)        # 604808 <_GLOBAL_OFFSET_TABLE_+0xc8>
  400dce:	68 16 00 00 00       	pushq  $0x16
  400dd3:	e9 80 fe ff ff       	jmpq   400c58 <_init+0x18>

0000000000400dd8 <alarm@plt>:
  400dd8:	ff 25 32 3a 20 00    	jmpq   *0x203a32(%rip)        # 604810 <_GLOBAL_OFFSET_TABLE_+0xd0>
  400dde:	68 17 00 00 00       	pushq  $0x17
  400de3:	e9 70 fe ff ff       	jmpq   400c58 <_init+0x18>

0000000000400de8 <__errno_location@plt>:
  400de8:	ff 25 2a 3a 20 00    	jmpq   *0x203a2a(%rip)        # 604818 <_GLOBAL_OFFSET_TABLE_+0xd8>
  400dee:	68 18 00 00 00       	pushq  $0x18
  400df3:	e9 60 fe ff ff       	jmpq   400c58 <_init+0x18>

0000000000400df8 <strcpy@plt>:
  400df8:	ff 25 22 3a 20 00    	jmpq   *0x203a22(%rip)        # 604820 <_GLOBAL_OFFSET_TABLE_+0xe0>
  400dfe:	68 19 00 00 00       	pushq  $0x19
  400e03:	e9 50 fe ff ff       	jmpq   400c58 <_init+0x18>

0000000000400e08 <munmap@plt>:
  400e08:	ff 25 1a 3a 20 00    	jmpq   *0x203a1a(%rip)        # 604828 <_GLOBAL_OFFSET_TABLE_+0xe8>
  400e0e:	68 1a 00 00 00       	pushq  $0x1a
  400e13:	e9 40 fe ff ff       	jmpq   400c58 <_init+0x18>

0000000000400e18 <random@plt>:
  400e18:	ff 25 12 3a 20 00    	jmpq   *0x203a12(%rip)        # 604830 <_GLOBAL_OFFSET_TABLE_+0xf0>
  400e1e:	68 1b 00 00 00       	pushq  $0x1b
  400e23:	e9 30 fe ff ff       	jmpq   400c58 <_init+0x18>

0000000000400e28 <fprintf@plt>:
  400e28:	ff 25 0a 3a 20 00    	jmpq   *0x203a0a(%rip)        # 604838 <_GLOBAL_OFFSET_TABLE_+0xf8>
  400e2e:	68 1c 00 00 00       	pushq  $0x1c
  400e33:	e9 20 fe ff ff       	jmpq   400c58 <_init+0x18>

0000000000400e38 <write@plt>:
  400e38:	ff 25 02 3a 20 00    	jmpq   *0x203a02(%rip)        # 604840 <_GLOBAL_OFFSET_TABLE_+0x100>
  400e3e:	68 1d 00 00 00       	pushq  $0x1d
  400e43:	e9 10 fe ff ff       	jmpq   400c58 <_init+0x18>

0000000000400e48 <strtoul@plt>:
  400e48:	ff 25 fa 39 20 00    	jmpq   *0x2039fa(%rip)        # 604848 <_GLOBAL_OFFSET_TABLE_+0x108>
  400e4e:	68 1e 00 00 00       	pushq  $0x1e
  400e53:	e9 00 fe ff ff       	jmpq   400c58 <_init+0x18>

0000000000400e58 <mmap@plt>:
  400e58:	ff 25 f2 39 20 00    	jmpq   *0x2039f2(%rip)        # 604850 <_GLOBAL_OFFSET_TABLE_+0x110>
  400e5e:	68 1f 00 00 00       	pushq  $0x1f
  400e63:	e9 f0 fd ff ff       	jmpq   400c58 <_init+0x18>

0000000000400e68 <time@plt>:
  400e68:	ff 25 ea 39 20 00    	jmpq   *0x2039ea(%rip)        # 604858 <_GLOBAL_OFFSET_TABLE_+0x118>
  400e6e:	68 20 00 00 00       	pushq  $0x20
  400e73:	e9 e0 fd ff ff       	jmpq   400c58 <_init+0x18>

Disassembly of section .text:

0000000000400e80 <_start>:
  400e80:	31 ed                	xor    %ebp,%ebp
  400e82:	49 89 d1             	mov    %rdx,%r9
  400e85:	5e                   	pop    %rsi
  400e86:	48 89 e2             	mov    %rsp,%rdx
  400e89:	48 83 e4 f0          	and    $0xfffffffffffffff0,%rsp
  400e8d:	50                   	push   %rax
  400e8e:	54                   	push   %rsp
  400e8f:	49 c7 c0 e0 2d 40 00 	mov    $0x402de0,%r8
  400e96:	48 c7 c1 f0 2d 40 00 	mov    $0x402df0,%rcx
  400e9d:	48 c7 c7 95 11 40 00 	mov    $0x401195,%rdi
  400ea4:	e8 7f fe ff ff       	callq  400d28 <__libc_start_main@plt>
  400ea9:	f4                   	hlt    
  400eaa:	90                   	nop
  400eab:	90                   	nop

0000000000400eac <call_gmon_start>:
  400eac:	48 83 ec 08          	sub    $0x8,%rsp
  400eb0:	48 8b 05 81 38 20 00 	mov    0x203881(%rip),%rax        # 604738 <_DYNAMIC+0x190>
  400eb7:	48 85 c0             	test   %rax,%rax
  400eba:	74 02                	je     400ebe <call_gmon_start+0x12>
  400ebc:	ff d0                	callq  *%rax
  400ebe:	48 83 c4 08          	add    $0x8,%rsp
  400ec2:	c3                   	retq   
  400ec3:	90                   	nop
  400ec4:	90                   	nop
  400ec5:	90                   	nop
  400ec6:	90                   	nop
  400ec7:	90                   	nop
  400ec8:	90                   	nop
  400ec9:	90                   	nop
  400eca:	90                   	nop
  400ecb:	90                   	nop
  400ecc:	90                   	nop
  400ecd:	90                   	nop
  400ece:	90                   	nop
  400ecf:	90                   	nop

0000000000400ed0 <deregister_tm_clones>:
  400ed0:	55                   	push   %rbp
  400ed1:	b8 d0 4b 60 00       	mov    $0x604bd0,%eax
  400ed6:	48 3d d0 4b 60 00    	cmp    $0x604bd0,%rax
  400edc:	48 89 e5             	mov    %rsp,%rbp
  400edf:	74 17                	je     400ef8 <deregister_tm_clones+0x28>
  400ee1:	b8 00 00 00 00       	mov    $0x0,%eax
  400ee6:	48 85 c0             	test   %rax,%rax
  400ee9:	74 0d                	je     400ef8 <deregister_tm_clones+0x28>
  400eeb:	5d                   	pop    %rbp
  400eec:	bf d0 4b 60 00       	mov    $0x604bd0,%edi
  400ef1:	ff e0                	jmpq   *%rax
  400ef3:	0f 1f 44 00 00       	nopl   0x0(%rax,%rax,1)
  400ef8:	5d                   	pop    %rbp
  400ef9:	c3                   	retq   
  400efa:	66 0f 1f 44 00 00    	nopw   0x0(%rax,%rax,1)

0000000000400f00 <register_tm_clones>:
  400f00:	be d0 4b 60 00       	mov    $0x604bd0,%esi
  400f05:	55                   	push   %rbp
  400f06:	48 81 ee d0 4b 60 00 	sub    $0x604bd0,%rsi
  400f0d:	48 89 e5             	mov    %rsp,%rbp
  400f10:	48 c1 fe 03          	sar    $0x3,%rsi
  400f14:	48 89 f0             	mov    %rsi,%rax
  400f17:	48 c1 e8 3f          	shr    $0x3f,%rax
  400f1b:	48 01 c6             	add    %rax,%rsi
  400f1e:	48 d1 fe             	sar    %rsi
  400f21:	74 15                	je     400f38 <register_tm_clones+0x38>
  400f23:	b8 00 00 00 00       	mov    $0x0,%eax
  400f28:	48 85 c0             	test   %rax,%rax
  400f2b:	74 0b                	je     400f38 <register_tm_clones+0x38>
  400f2d:	5d                   	pop    %rbp
  400f2e:	bf d0 4b 60 00       	mov    $0x604bd0,%edi
  400f33:	ff e0                	jmpq   *%rax
  400f35:	0f 1f 00             	nopl   (%rax)
  400f38:	5d                   	pop    %rbp
  400f39:	c3                   	retq   
  400f3a:	66 0f 1f 44 00 00    	nopw   0x0(%rax,%rax,1)

0000000000400f40 <__do_global_dtors_aux>:
  400f40:	80 3d c9 3c 20 00 00 	cmpb   $0x0,0x203cc9(%rip)        # 604c10 <completed.6865>
  400f47:	75 67                	jne    400fb0 <__do_global_dtors_aux+0x70>
  400f49:	55                   	push   %rbp
  400f4a:	48 8b 05 c7 3c 20 00 	mov    0x203cc7(%rip),%rax        # 604c18 <dtor_idx.6867>
  400f51:	48 89 e5             	mov    %rsp,%rbp
  400f54:	41 54                	push   %r12
  400f56:	53                   	push   %rbx
  400f57:	bb a0 45 60 00       	mov    $0x6045a0,%ebx
  400f5c:	41 bc 98 45 60 00    	mov    $0x604598,%r12d
  400f62:	48 81 eb 98 45 60 00 	sub    $0x604598,%rbx
  400f69:	48 c1 fb 03          	sar    $0x3,%rbx
  400f6d:	48 83 eb 01          	sub    $0x1,%rbx
  400f71:	48 39 d8             	cmp    %rbx,%rax
  400f74:	73 25                	jae    400f9b <__do_global_dtors_aux+0x5b>
  400f76:	66 2e 0f 1f 84 00 00 	nopw   %cs:0x0(%rax,%rax,1)
  400f7d:	00 00 00 
  400f80:	48 83 c0 01          	add    $0x1,%rax
  400f84:	48 89 05 8d 3c 20 00 	mov    %rax,0x203c8d(%rip)        # 604c18 <dtor_idx.6867>
  400f8b:	41 ff 14 c4          	callq  *(%r12,%rax,8)
  400f8f:	48 8b 05 82 3c 20 00 	mov    0x203c82(%rip),%rax        # 604c18 <dtor_idx.6867>
  400f96:	48 39 d8             	cmp    %rbx,%rax
  400f99:	72 e5                	jb     400f80 <__do_global_dtors_aux+0x40>
  400f9b:	e8 30 ff ff ff       	callq  400ed0 <deregister_tm_clones>
  400fa0:	5b                   	pop    %rbx
  400fa1:	c6 05 68 3c 20 00 01 	movb   $0x1,0x203c68(%rip)        # 604c10 <completed.6865>
  400fa8:	41 5c                	pop    %r12
  400faa:	5d                   	pop    %rbp
  400fab:	c3                   	retq   
  400fac:	0f 1f 40 00          	nopl   0x0(%rax)
  400fb0:	f3 c3                	repz retq 
  400fb2:	66 66 66 66 66 2e 0f 	data32 data32 data32 data32 nopw %cs:0x0(%rax,%rax,1)
  400fb9:	1f 84 00 00 00 00 00 

0000000000400fc0 <frame_dummy>:
  400fc0:	55                   	push   %rbp
  400fc1:	48 89 e5             	mov    %rsp,%rbp
  400fc4:	5d                   	pop    %rbp
  400fc5:	e9 36 ff ff ff       	jmpq   400f00 <register_tm_clones>
  400fca:	90                   	nop
  400fcb:	90                   	nop

0000000000400fcc <usage>:
  400fcc:	48 83 ec 08          	sub    $0x8,%rsp
  400fd0:	48 89 fe             	mov    %rdi,%rsi
  400fd3:	83 3d 6e 3c 20 00 00 	cmpl   $0x0,0x203c6e(%rip)        # 604c48 <is_checker>
  400fda:	74 41                	je     40101d <usage+0x51>
  400fdc:	bf e8 2e 40 00       	mov    $0x402ee8,%edi
  400fe1:	b8 00 00 00 00       	mov    $0x0,%eax
  400fe6:	e8 7d fc ff ff       	callq  400c68 <printf@plt>
  400feb:	bf 20 2f 40 00       	mov    $0x402f20,%edi
  400ff0:	e8 b3 fc ff ff       	callq  400ca8 <puts@plt>
  400ff5:	bf 98 30 40 00       	mov    $0x403098,%edi
  400ffa:	e8 a9 fc ff ff       	callq  400ca8 <puts@plt>
  400fff:	bf 48 2f 40 00       	mov    $0x402f48,%edi
  401004:	e8 9f fc ff ff       	callq  400ca8 <puts@plt>
  401009:	bf b2 30 40 00       	mov    $0x4030b2,%edi
  40100e:	e8 95 fc ff ff       	callq  400ca8 <puts@plt>
  401013:	bf 00 00 00 00       	mov    $0x0,%edi
  401018:	e8 ab fc ff ff       	callq  400cc8 <exit@plt>
  40101d:	bf ce 30 40 00       	mov    $0x4030ce,%edi
  401022:	b8 00 00 00 00       	mov    $0x0,%eax
  401027:	e8 3c fc ff ff       	callq  400c68 <printf@plt>
  40102c:	bf 70 2f 40 00       	mov    $0x402f70,%edi
  401031:	e8 72 fc ff ff       	callq  400ca8 <puts@plt>
  401036:	bf 98 2f 40 00       	mov    $0x402f98,%edi
  40103b:	e8 68 fc ff ff       	callq  400ca8 <puts@plt>
  401040:	bf ec 30 40 00       	mov    $0x4030ec,%edi
  401045:	e8 5e fc ff ff       	callq  400ca8 <puts@plt>
  40104a:	eb c7                	jmp    401013 <usage+0x47>

000000000040104c <initialize_target>:
  40104c:	55                   	push   %rbp
  40104d:	53                   	push   %rbx
  40104e:	48 81 ec 08 21 00 00 	sub    $0x2108,%rsp
  401055:	89 f5                	mov    %esi,%ebp
  401057:	89 3d db 3b 20 00    	mov    %edi,0x203bdb(%rip)        # 604c38 <check_level>
  40105d:	8b 3d 25 38 20 00    	mov    0x203825(%rip),%edi        # 604888 <target_id>
  401063:	e8 52 1d 00 00       	callq  402dba <gencookie>
  401068:	89 05 d6 3b 20 00    	mov    %eax,0x203bd6(%rip)        # 604c44 <cookie>
  40106e:	89 c7                	mov    %eax,%edi
  401070:	e8 45 1d 00 00       	callq  402dba <gencookie>
  401075:	89 05 c5 3b 20 00    	mov    %eax,0x203bc5(%rip)        # 604c40 <authkey>
  40107b:	8b 05 07 38 20 00    	mov    0x203807(%rip),%eax        # 604888 <target_id>
  401081:	8d 78 01             	lea    0x1(%rax),%edi
  401084:	e8 af fc ff ff       	callq  400d38 <srandom@plt>
  401089:	e8 8a fd ff ff       	callq  400e18 <random@plt>
  40108e:	89 c7                	mov    %eax,%edi
  401090:	e8 bb 02 00 00       	callq  401350 <scramble>
  401095:	89 c3                	mov    %eax,%ebx
  401097:	85 ed                	test   %ebp,%ebp
  401099:	75 3d                	jne    4010d8 <initialize_target+0x8c>
  40109b:	b8 00 00 00 00       	mov    $0x0,%eax
  4010a0:	01 d8                	add    %ebx,%eax
  4010a2:	0f b7 c0             	movzwl %ax,%eax
  4010a5:	8d 04 c5 00 01 00 00 	lea    0x100(,%rax,8),%eax
  4010ac:	89 c0                	mov    %eax,%eax
  4010ae:	48 89 05 0b 3b 20 00 	mov    %rax,0x203b0b(%rip)        # 604bc0 <buf_offset>
  4010b5:	c6 05 ac 47 20 00 72 	movb   $0x72,0x2047ac(%rip)        # 605868 <target_prefix>
  4010bc:	83 3d 05 3b 20 00 00 	cmpl   $0x0,0x203b05(%rip)        # 604bc8 <notify>
  4010c3:	74 09                	je     4010ce <initialize_target+0x82>
  4010c5:	83 3d 7c 3b 20 00 00 	cmpl   $0x0,0x203b7c(%rip)        # 604c48 <is_checker>
  4010cc:	74 22                	je     4010f0 <initialize_target+0xa4>
  4010ce:	48 81 c4 08 21 00 00 	add    $0x2108,%rsp
  4010d5:	5b                   	pop    %rbx
  4010d6:	5d                   	pop    %rbp
  4010d7:	c3                   	retq   
  4010d8:	bf 00 00 00 00       	mov    $0x0,%edi
  4010dd:	e8 86 fd ff ff       	callq  400e68 <time@plt>
  4010e2:	89 c7                	mov    %eax,%edi
  4010e4:	e8 4f fc ff ff       	callq  400d38 <srandom@plt>
  4010e9:	e8 2a fd ff ff       	callq  400e18 <random@plt>
  4010ee:	eb b0                	jmp    4010a0 <initialize_target+0x54>
  4010f0:	be 00 01 00 00       	mov    $0x100,%esi
  4010f5:	48 89 e7             	mov    %rsp,%rdi
  4010f8:	e8 9b fc ff ff       	callq  400d98 <gethostname@plt>
  4010fd:	89 c5                	mov    %eax,%ebp
  4010ff:	85 c0                	test   %eax,%eax
  401101:	75 23                	jne    401126 <initialize_target+0xda>
  401103:	89 c3                	mov    %eax,%ebx
  401105:	48 63 c3             	movslq %ebx,%rax
  401108:	48 8b 3c c5 a0 48 60 	mov    0x6048a0(,%rax,8),%rdi
  40110f:	00 
  401110:	48 85 ff             	test   %rdi,%rdi
  401113:	74 2a                	je     40113f <initialize_target+0xf3>
  401115:	48 89 e6             	mov    %rsp,%rsi
  401118:	e8 bb fb ff ff       	callq  400cd8 <strcasecmp@plt>
  40111d:	85 c0                	test   %eax,%eax
  40111f:	74 19                	je     40113a <initialize_target+0xee>
  401121:	83 c3 01             	add    $0x1,%ebx
  401124:	eb df                	jmp    401105 <initialize_target+0xb9>
  401126:	bf c8 2f 40 00       	mov    $0x402fc8,%edi
  40112b:	e8 78 fb ff ff       	callq  400ca8 <puts@plt>
  401130:	bf 08 00 00 00       	mov    $0x8,%edi
  401135:	e8 8e fb ff ff       	callq  400cc8 <exit@plt>
  40113a:	bd 01 00 00 00       	mov    $0x1,%ebp
  40113f:	85 ed                	test   %ebp,%ebp
  401141:	74 36                	je     401179 <initialize_target+0x12d>
  401143:	48 8d bc 24 00 01 00 	lea    0x100(%rsp),%rdi
  40114a:	00 
  40114b:	e8 fa 19 00 00       	callq  402b4a <init_driver>
  401150:	85 c0                	test   %eax,%eax
  401152:	0f 89 76 ff ff ff    	jns    4010ce <initialize_target+0x82>
  401158:	48 8d b4 24 00 01 00 	lea    0x100(%rsp),%rsi
  40115f:	00 
  401160:	bf 40 30 40 00       	mov    $0x403040,%edi
  401165:	b8 00 00 00 00       	mov    $0x0,%eax
  40116a:	e8 f9 fa ff ff       	callq  400c68 <printf@plt>
  40116f:	bf 08 00 00 00       	mov    $0x8,%edi
  401174:	e8 4f fb ff ff       	callq  400cc8 <exit@plt>
  401179:	48 89 e6             	mov    %rsp,%rsi
  40117c:	bf 00 30 40 00       	mov    $0x403000,%edi
  401181:	b8 00 00 00 00       	mov    $0x0,%eax
  401186:	e8 dd fa ff ff       	callq  400c68 <printf@plt>
  40118b:	bf 08 00 00 00       	mov    $0x8,%edi
  401190:	e8 33 fb ff ff       	callq  400cc8 <exit@plt>

0000000000401195 <main>:
  401195:	41 56                	push   %r14
  401197:	41 55                	push   %r13
  401199:	41 54                	push   %r12
  40119b:	55                   	push   %rbp
  40119c:	53                   	push   %rbx
  40119d:	41 89 fc             	mov    %edi,%r12d
  4011a0:	48 89 f3             	mov    %rsi,%rbx
  4011a3:	be 31 1f 40 00       	mov    $0x401f31,%esi
  4011a8:	bf 0b 00 00 00       	mov    $0xb,%edi
  4011ad:	e8 06 fc ff ff       	callq  400db8 <signal@plt>
  4011b2:	be e3 1e 40 00       	mov    $0x401ee3,%esi
  4011b7:	bf 07 00 00 00       	mov    $0x7,%edi
  4011bc:	e8 f7 fb ff ff       	callq  400db8 <signal@plt>
  4011c1:	be 7f 1f 40 00       	mov    $0x401f7f,%esi
  4011c6:	bf 04 00 00 00       	mov    $0x4,%edi
  4011cb:	e8 e8 fb ff ff       	callq  400db8 <signal@plt>
  4011d0:	83 3d 71 3a 20 00 00 	cmpl   $0x0,0x203a71(%rip)        # 604c48 <is_checker>
  4011d7:	75 24                	jne    4011fd <main+0x68>
  4011d9:	bd 05 31 40 00       	mov    $0x403105,%ebp
  4011de:	48 8b 05 fb 39 20 00 	mov    0x2039fb(%rip),%rax        # 604be0 <stdin@@GLIBC_2.2.5>
  4011e5:	48 89 05 44 3a 20 00 	mov    %rax,0x203a44(%rip)        # 604c30 <infile>
  4011ec:	41 bd 00 00 00 00    	mov    $0x0,%r13d
  4011f2:	41 be 00 00 00 00    	mov    $0x0,%r14d
  4011f8:	e9 80 00 00 00       	jmpq   40127d <main+0xe8>
  4011fd:	be cd 1f 40 00       	mov    $0x401fcd,%esi
  401202:	bf 0e 00 00 00       	mov    $0xe,%edi
  401207:	e8 ac fb ff ff       	callq  400db8 <signal@plt>
  40120c:	bf 05 00 00 00       	mov    $0x5,%edi
  401211:	e8 c2 fb ff ff       	callq  400dd8 <alarm@plt>
  401216:	bd 0a 31 40 00       	mov    $0x40310a,%ebp
  40121b:	eb c1                	jmp    4011de <main+0x49>
  40121d:	48 8b 3b             	mov    (%rbx),%rdi
  401220:	e8 a7 fd ff ff       	callq  400fcc <usage>
  401225:	be 42 34 40 00       	mov    $0x403442,%esi
  40122a:	48 8b 3d cf 39 20 00 	mov    0x2039cf(%rip),%rdi        # 604c00 <optarg@@GLIBC_2.2.5>
  401231:	e8 e2 fa ff ff       	callq  400d18 <fopen@plt>
  401236:	48 89 05 f3 39 20 00 	mov    %rax,0x2039f3(%rip)        # 604c30 <infile>
  40123d:	48 85 c0             	test   %rax,%rax
  401240:	75 3b                	jne    40127d <main+0xe8>
  401242:	48 8b 15 b7 39 20 00 	mov    0x2039b7(%rip),%rdx        # 604c00 <optarg@@GLIBC_2.2.5>
  401249:	be 12 31 40 00       	mov    $0x403112,%esi
  40124e:	48 8b 3d b3 39 20 00 	mov    0x2039b3(%rip),%rdi        # 604c08 <stderr@@GLIBC_2.2.5>
  401255:	e8 ce fb ff ff       	callq  400e28 <fprintf@plt>
  40125a:	b8 01 00 00 00       	mov    $0x1,%eax
  40125f:	e9 c2 00 00 00       	jmpq   401326 <main+0x191>
  401264:	ba 10 00 00 00       	mov    $0x10,%edx
  401269:	be 00 00 00 00       	mov    $0x0,%esi
  40126e:	48 8b 3d 8b 39 20 00 	mov    0x20398b(%rip),%rdi        # 604c00 <optarg@@GLIBC_2.2.5>
  401275:	e8 ce fb ff ff       	callq  400e48 <strtoul@plt>
  40127a:	41 89 c6             	mov    %eax,%r14d
  40127d:	48 89 ea             	mov    %rbp,%rdx
  401280:	48 89 de             	mov    %rbx,%rsi
  401283:	44 89 e7             	mov    %r12d,%edi
  401286:	e8 5d fa ff ff       	callq  400ce8 <getopt@plt>
  40128b:	3c ff                	cmp    $0xff,%al
  40128d:	74 52                	je     4012e1 <main+0x14c>
  40128f:	0f be f0             	movsbl %al,%esi
  401292:	83 e8 61             	sub    $0x61,%eax
  401295:	3c 10                	cmp    $0x10,%al
  401297:	77 31                	ja     4012ca <main+0x135>
  401299:	0f b6 c0             	movzbl %al,%eax
  40129c:	ff 24 c5 50 31 40 00 	jmpq   *0x403150(,%rax,8)
  4012a3:	ba 0a 00 00 00       	mov    $0xa,%edx
  4012a8:	be 00 00 00 00       	mov    $0x0,%esi
  4012ad:	48 8b 3d 4c 39 20 00 	mov    0x20394c(%rip),%rdi        # 604c00 <optarg@@GLIBC_2.2.5>
  4012b4:	e8 bf fa ff ff       	callq  400d78 <strtol@plt>
  4012b9:	41 89 c5             	mov    %eax,%r13d
  4012bc:	eb bf                	jmp    40127d <main+0xe8>
  4012be:	c7 05 00 39 20 00 00 	movl   $0x0,0x203900(%rip)        # 604bc8 <notify>
  4012c5:	00 00 00 
  4012c8:	eb b3                	jmp    40127d <main+0xe8>
  4012ca:	bf 2f 31 40 00       	mov    $0x40312f,%edi
  4012cf:	b8 00 00 00 00       	mov    $0x0,%eax
  4012d4:	e8 8f f9 ff ff       	callq  400c68 <printf@plt>
  4012d9:	48 8b 3b             	mov    (%rbx),%rdi
  4012dc:	e8 eb fc ff ff       	callq  400fcc <usage>
  4012e1:	be 01 00 00 00       	mov    $0x1,%esi
  4012e6:	44 89 ef             	mov    %r13d,%edi
  4012e9:	e8 5e fd ff ff       	callq  40104c <initialize_target>
  4012ee:	83 3d 53 39 20 00 00 	cmpl   $0x0,0x203953(%rip)        # 604c48 <is_checker>
  4012f5:	74 09                	je     401300 <main+0x16b>
  4012f7:	44 39 35 42 39 20 00 	cmp    %r14d,0x203942(%rip)        # 604c40 <authkey>
  4012fe:	75 2f                	jne    40132f <main+0x19a>
  401300:	8b 35 3e 39 20 00    	mov    0x20393e(%rip),%esi        # 604c44 <cookie>
  401306:	bf 42 31 40 00       	mov    $0x403142,%edi
  40130b:	b8 00 00 00 00       	mov    $0x0,%eax
  401310:	e8 53 f9 ff ff       	callq  400c68 <printf@plt>
  401315:	48 8b 3d a4 38 20 00 	mov    0x2038a4(%rip),%rdi        # 604bc0 <buf_offset>
  40131c:	e8 fa 0c 00 00       	callq  40201b <launch>
  401321:	b8 00 00 00 00       	mov    $0x0,%eax
  401326:	5b                   	pop    %rbx
  401327:	5d                   	pop    %rbp
  401328:	41 5c                	pop    %r12
  40132a:	41 5d                	pop    %r13
  40132c:	41 5e                	pop    %r14
  40132e:	c3                   	retq   
  40132f:	44 89 f6             	mov    %r14d,%esi
  401332:	bf 68 30 40 00       	mov    $0x403068,%edi
  401337:	b8 00 00 00 00       	mov    $0x0,%eax
  40133c:	e8 27 f9 ff ff       	callq  400c68 <printf@plt>
  401341:	b8 00 00 00 00       	mov    $0x0,%eax
  401346:	e8 94 08 00 00       	callq  401bdf <check_fail>
  40134b:	eb b3                	jmp    401300 <main+0x16b>
  40134d:	90                   	nop
  40134e:	90                   	nop
  40134f:	90                   	nop

0000000000401350 <scramble>:
  401350:	b8 00 00 00 00       	mov    $0x0,%eax
  401355:	eb 11                	jmp    401368 <scramble+0x18>
  401357:	69 d0 96 57 00 00    	imul   $0x5796,%eax,%edx
  40135d:	01 fa                	add    %edi,%edx
  40135f:	89 c1                	mov    %eax,%ecx
  401361:	89 54 8c d0          	mov    %edx,-0x30(%rsp,%rcx,4)
  401365:	83 c0 01             	add    $0x1,%eax
  401368:	83 f8 09             	cmp    $0x9,%eax
  40136b:	76 ea                	jbe    401357 <scramble+0x7>
  40136d:	8b 44 24 e4          	mov    -0x1c(%rsp),%eax
  401371:	69 c0 75 e6 00 00    	imul   $0xe675,%eax,%eax
  401377:	89 44 24 e4          	mov    %eax,-0x1c(%rsp)
  40137b:	8b 44 24 e4          	mov    -0x1c(%rsp),%eax
  40137f:	69 c0 2b 74 00 00    	imul   $0x742b,%eax,%eax
  401385:	89 44 24 e4          	mov    %eax,-0x1c(%rsp)
  401389:	8b 44 24 d4          	mov    -0x2c(%rsp),%eax
  40138d:	69 c0 e9 58 00 00    	imul   $0x58e9,%eax,%eax
  401393:	89 44 24 d4          	mov    %eax,-0x2c(%rsp)
  401397:	8b 44 24 dc          	mov    -0x24(%rsp),%eax
  40139b:	69 c0 09 fd 00 00    	imul   $0xfd09,%eax,%eax
  4013a1:	89 44 24 dc          	mov    %eax,-0x24(%rsp)
  4013a5:	8b 44 24 e8          	mov    -0x18(%rsp),%eax
  4013a9:	69 c0 74 7c 00 00    	imul   $0x7c74,%eax,%eax
  4013af:	89 44 24 e8          	mov    %eax,-0x18(%rsp)
  4013b3:	8b 44 24 e0          	mov    -0x20(%rsp),%eax
  4013b7:	69 c0 86 de 00 00    	imul   $0xde86,%eax,%eax
  4013bd:	89 44 24 e0          	mov    %eax,-0x20(%rsp)
  4013c1:	8b 44 24 f4          	mov    -0xc(%rsp),%eax
  4013c5:	69 c0 71 eb 00 00    	imul   $0xeb71,%eax,%eax
  4013cb:	89 44 24 f4          	mov    %eax,-0xc(%rsp)
  4013cf:	8b 44 24 e0          	mov    -0x20(%rsp),%eax
  4013d3:	69 c0 39 07 00 00    	imul   $0x739,%eax,%eax
  4013d9:	89 44 24 e0          	mov    %eax,-0x20(%rsp)
  4013dd:	8b 44 24 f0          	mov    -0x10(%rsp),%eax
  4013e1:	69 c0 47 8f 00 00    	imul   $0x8f47,%eax,%eax
  4013e7:	89 44 24 f0          	mov    %eax,-0x10(%rsp)
  4013eb:	8b 44 24 e0          	mov    -0x20(%rsp),%eax
  4013ef:	69 c0 7b bb 00 00    	imul   $0xbb7b,%eax,%eax
  4013f5:	89 44 24 e0          	mov    %eax,-0x20(%rsp)
  4013f9:	8b 44 24 d4          	mov    -0x2c(%rsp),%eax
  4013fd:	69 c0 35 96 00 00    	imul   $0x9635,%eax,%eax
  401403:	89 44 24 d4          	mov    %eax,-0x2c(%rsp)
  401407:	8b 44 24 e4          	mov    -0x1c(%rsp),%eax
  40140b:	69 c0 37 e7 00 00    	imul   $0xe737,%eax,%eax
  401411:	89 44 24 e4          	mov    %eax,-0x1c(%rsp)
  401415:	8b 44 24 f0          	mov    -0x10(%rsp),%eax
  401419:	69 c0 e4 0c 00 00    	imul   $0xce4,%eax,%eax
  40141f:	89 44 24 f0          	mov    %eax,-0x10(%rsp)
  401423:	8b 44 24 dc          	mov    -0x24(%rsp),%eax
  401427:	69 c0 f7 47 00 00    	imul   $0x47f7,%eax,%eax
  40142d:	89 44 24 dc          	mov    %eax,-0x24(%rsp)
  401431:	8b 44 24 e8          	mov    -0x18(%rsp),%eax
  401435:	69 c0 da 58 00 00    	imul   $0x58da,%eax,%eax
  40143b:	89 44 24 e8          	mov    %eax,-0x18(%rsp)
  40143f:	8b 44 24 dc          	mov    -0x24(%rsp),%eax
  401443:	69 c0 fb c3 00 00    	imul   $0xc3fb,%eax,%eax
  401449:	89 44 24 dc          	mov    %eax,-0x24(%rsp)
  40144d:	8b 44 24 e4          	mov    -0x1c(%rsp),%eax
  401451:	69 c0 c4 32 00 00    	imul   $0x32c4,%eax,%eax
  401457:	89 44 24 e4          	mov    %eax,-0x1c(%rsp)
  40145b:	8b 44 24 e4          	mov    -0x1c(%rsp),%eax
  40145f:	69 c0 b6 4d 00 00    	imul   $0x4db6,%eax,%eax
  401465:	89 44 24 e4          	mov    %eax,-0x1c(%rsp)
  401469:	8b 44 24 d0          	mov    -0x30(%rsp),%eax
  40146d:	69 c0 40 81 00 00    	imul   $0x8140,%eax,%eax
  401473:	89 44 24 d0          	mov    %eax,-0x30(%rsp)
  401477:	8b 44 24 ec          	mov    -0x14(%rsp),%eax
  40147b:	69 c0 e0 4a 00 00    	imul   $0x4ae0,%eax,%eax
  401481:	89 44 24 ec          	mov    %eax,-0x14(%rsp)
  401485:	8b 44 24 f0          	mov    -0x10(%rsp),%eax
  401489:	69 c0 dc 50 00 00    	imul   $0x50dc,%eax,%eax
  40148f:	89 44 24 f0          	mov    %eax,-0x10(%rsp)
  401493:	8b 44 24 f4          	mov    -0xc(%rsp),%eax
  401497:	69 c0 c3 0c 00 00    	imul   $0xcc3,%eax,%eax
  40149d:	89 44 24 f4          	mov    %eax,-0xc(%rsp)
  4014a1:	8b 44 24 e4          	mov    -0x1c(%rsp),%eax
  4014a5:	69 c0 30 55 00 00    	imul   $0x5530,%eax,%eax
  4014ab:	89 44 24 e4          	mov    %eax,-0x1c(%rsp)
  4014af:	8b 44 24 dc          	mov    -0x24(%rsp),%eax
  4014b3:	69 c0 81 70 00 00    	imul   $0x7081,%eax,%eax
  4014b9:	89 44 24 dc          	mov    %eax,-0x24(%rsp)
  4014bd:	8b 44 24 ec          	mov    -0x14(%rsp),%eax
  4014c1:	69 c0 af d6 00 00    	imul   $0xd6af,%eax,%eax
  4014c7:	89 44 24 ec          	mov    %eax,-0x14(%rsp)
  4014cb:	8b 44 24 d8          	mov    -0x28(%rsp),%eax
  4014cf:	69 c0 4f a4 00 00    	imul   $0xa44f,%eax,%eax
  4014d5:	89 44 24 d8          	mov    %eax,-0x28(%rsp)
  4014d9:	8b 44 24 e0          	mov    -0x20(%rsp),%eax
  4014dd:	69 c0 22 4f 00 00    	imul   $0x4f22,%eax,%eax
  4014e3:	89 44 24 e0          	mov    %eax,-0x20(%rsp)
  4014e7:	8b 44 24 d8          	mov    -0x28(%rsp),%eax
  4014eb:	69 c0 bf 0b 00 00    	imul   $0xbbf,%eax,%eax
  4014f1:	89 44 24 d8          	mov    %eax,-0x28(%rsp)
  4014f5:	8b 44 24 d0          	mov    -0x30(%rsp),%eax
  4014f9:	69 c0 28 74 00 00    	imul   $0x7428,%eax,%eax
  4014ff:	89 44 24 d0          	mov    %eax,-0x30(%rsp)
  401503:	8b 44 24 f0          	mov    -0x10(%rsp),%eax
  401507:	69 c0 6b c8 00 00    	imul   $0xc86b,%eax,%eax
  40150d:	89 44 24 f0          	mov    %eax,-0x10(%rsp)
  401511:	8b 44 24 ec          	mov    -0x14(%rsp),%eax
  401515:	69 c0 6d 17 00 00    	imul   $0x176d,%eax,%eax
  40151b:	89 44 24 ec          	mov    %eax,-0x14(%rsp)
  40151f:	8b 44 24 d4          	mov    -0x2c(%rsp),%eax
  401523:	69 c0 51 0c 00 00    	imul   $0xc51,%eax,%eax
  401529:	89 44 24 d4          	mov    %eax,-0x2c(%rsp)
  40152d:	8b 44 24 e0          	mov    -0x20(%rsp),%eax
  401531:	69 c0 8e c4 00 00    	imul   $0xc48e,%eax,%eax
  401537:	89 44 24 e0          	mov    %eax,-0x20(%rsp)
  40153b:	8b 44 24 d0          	mov    -0x30(%rsp),%eax
  40153f:	69 c0 de d5 00 00    	imul   $0xd5de,%eax,%eax
  401545:	89 44 24 d0          	mov    %eax,-0x30(%rsp)
  401549:	8b 44 24 e8          	mov    -0x18(%rsp),%eax
  40154d:	69 c0 c8 a4 00 00    	imul   $0xa4c8,%eax,%eax
  401553:	89 44 24 e8          	mov    %eax,-0x18(%rsp)
  401557:	8b 44 24 d8          	mov    -0x28(%rsp),%eax
  40155b:	69 c0 83 43 00 00    	imul   $0x4383,%eax,%eax
  401561:	89 44 24 d8          	mov    %eax,-0x28(%rsp)
  401565:	8b 44 24 d4          	mov    -0x2c(%rsp),%eax
  401569:	69 c0 25 4a 00 00    	imul   $0x4a25,%eax,%eax
  40156f:	89 44 24 d4          	mov    %eax,-0x2c(%rsp)
  401573:	8b 44 24 e4          	mov    -0x1c(%rsp),%eax
  401577:	69 c0 f1 31 00 00    	imul   $0x31f1,%eax,%eax
  40157d:	89 44 24 e4          	mov    %eax,-0x1c(%rsp)
  401581:	8b 44 24 e8          	mov    -0x18(%rsp),%eax
  401585:	69 c0 44 64 00 00    	imul   $0x6444,%eax,%eax
  40158b:	89 44 24 e8          	mov    %eax,-0x18(%rsp)
  40158f:	8b 44 24 d4          	mov    -0x2c(%rsp),%eax
  401593:	69 c0 cc 83 00 00    	imul   $0x83cc,%eax,%eax
  401599:	89 44 24 d4          	mov    %eax,-0x2c(%rsp)
  40159d:	8b 44 24 ec          	mov    -0x14(%rsp),%eax
  4015a1:	69 c0 6f ce 00 00    	imul   $0xce6f,%eax,%eax
  4015a7:	89 44 24 ec          	mov    %eax,-0x14(%rsp)
  4015ab:	8b 44 24 e4          	mov    -0x1c(%rsp),%eax
  4015af:	69 c0 d7 a7 00 00    	imul   $0xa7d7,%eax,%eax
  4015b5:	89 44 24 e4          	mov    %eax,-0x1c(%rsp)
  4015b9:	8b 44 24 e0          	mov    -0x20(%rsp),%eax
  4015bd:	69 c0 a1 b3 00 00    	imul   $0xb3a1,%eax,%eax
  4015c3:	89 44 24 e0          	mov    %eax,-0x20(%rsp)
  4015c7:	8b 44 24 e4          	mov    -0x1c(%rsp),%eax
  4015cb:	69 c0 98 79 00 00    	imul   $0x7998,%eax,%eax
  4015d1:	89 44 24 e4          	mov    %eax,-0x1c(%rsp)
  4015d5:	8b 44 24 f4          	mov    -0xc(%rsp),%eax
  4015d9:	69 c0 4c 07 00 00    	imul   $0x74c,%eax,%eax
  4015df:	89 44 24 f4          	mov    %eax,-0xc(%rsp)
  4015e3:	8b 44 24 dc          	mov    -0x24(%rsp),%eax
  4015e7:	69 c0 cb f4 00 00    	imul   $0xf4cb,%eax,%eax
  4015ed:	89 44 24 dc          	mov    %eax,-0x24(%rsp)
  4015f1:	8b 44 24 f0          	mov    -0x10(%rsp),%eax
  4015f5:	69 c0 6a ce 00 00    	imul   $0xce6a,%eax,%eax
  4015fb:	89 44 24 f0          	mov    %eax,-0x10(%rsp)
  4015ff:	8b 44 24 d8          	mov    -0x28(%rsp),%eax
  401603:	69 c0 ea 68 00 00    	imul   $0x68ea,%eax,%eax
  401609:	89 44 24 d8          	mov    %eax,-0x28(%rsp)
  40160d:	8b 44 24 e0          	mov    -0x20(%rsp),%eax
  401611:	69 c0 24 5b 00 00    	imul   $0x5b24,%eax,%eax
  401617:	89 44 24 e0          	mov    %eax,-0x20(%rsp)
  40161b:	8b 44 24 f0          	mov    -0x10(%rsp),%eax
  40161f:	69 c0 c7 d8 00 00    	imul   $0xd8c7,%eax,%eax
  401625:	89 44 24 f0          	mov    %eax,-0x10(%rsp)
  401629:	8b 44 24 d8          	mov    -0x28(%rsp),%eax
  40162d:	69 c0 87 5f 00 00    	imul   $0x5f87,%eax,%eax
  401633:	89 44 24 d8          	mov    %eax,-0x28(%rsp)
  401637:	8b 44 24 f0          	mov    -0x10(%rsp),%eax
  40163b:	69 c0 90 f5 00 00    	imul   $0xf590,%eax,%eax
  401641:	89 44 24 f0          	mov    %eax,-0x10(%rsp)
  401645:	8b 44 24 e4          	mov    -0x1c(%rsp),%eax
  401649:	69 c0 91 6c 00 00    	imul   $0x6c91,%eax,%eax
  40164f:	89 44 24 e4          	mov    %eax,-0x1c(%rsp)
  401653:	8b 44 24 d4          	mov    -0x2c(%rsp),%eax
  401657:	69 c0 01 49 00 00    	imul   $0x4901,%eax,%eax
  40165d:	89 44 24 d4          	mov    %eax,-0x2c(%rsp)
  401661:	8b 44 24 e4          	mov    -0x1c(%rsp),%eax
  401665:	69 c0 f4 c9 00 00    	imul   $0xc9f4,%eax,%eax
  40166b:	89 44 24 e4          	mov    %eax,-0x1c(%rsp)
  40166f:	8b 44 24 f4          	mov    -0xc(%rsp),%eax
  401673:	69 c0 c8 0b 00 00    	imul   $0xbc8,%eax,%eax
  401679:	89 44 24 f4          	mov    %eax,-0xc(%rsp)
  40167d:	8b 44 24 f4          	mov    -0xc(%rsp),%eax
  401681:	69 c0 e8 f4 00 00    	imul   $0xf4e8,%eax,%eax
  401687:	89 44 24 f4          	mov    %eax,-0xc(%rsp)
  40168b:	8b 44 24 e4          	mov    -0x1c(%rsp),%eax
  40168f:	69 c0 f5 b5 00 00    	imul   $0xb5f5,%eax,%eax
  401695:	89 44 24 e4          	mov    %eax,-0x1c(%rsp)
  401699:	8b 44 24 f4          	mov    -0xc(%rsp),%eax
  40169d:	69 c0 35 67 00 00    	imul   $0x6735,%eax,%eax
  4016a3:	89 44 24 f4          	mov    %eax,-0xc(%rsp)
  4016a7:	8b 44 24 d0          	mov    -0x30(%rsp),%eax
  4016ab:	69 c0 52 d0 00 00    	imul   $0xd052,%eax,%eax
  4016b1:	89 44 24 d0          	mov    %eax,-0x30(%rsp)
  4016b5:	8b 44 24 ec          	mov    -0x14(%rsp),%eax
  4016b9:	69 c0 90 71 00 00    	imul   $0x7190,%eax,%eax
  4016bf:	89 44 24 ec          	mov    %eax,-0x14(%rsp)
  4016c3:	8b 44 24 ec          	mov    -0x14(%rsp),%eax
  4016c7:	69 c0 3b 8d 00 00    	imul   $0x8d3b,%eax,%eax
  4016cd:	89 44 24 ec          	mov    %eax,-0x14(%rsp)
  4016d1:	8b 44 24 d8          	mov    -0x28(%rsp),%eax
  4016d5:	69 c0 39 c6 00 00    	imul   $0xc639,%eax,%eax
  4016db:	89 44 24 d8          	mov    %eax,-0x28(%rsp)
  4016df:	8b 44 24 d0          	mov    -0x30(%rsp),%eax
  4016e3:	69 c0 f3 d2 00 00    	imul   $0xd2f3,%eax,%eax
  4016e9:	89 44 24 d0          	mov    %eax,-0x30(%rsp)
  4016ed:	8b 44 24 d8          	mov    -0x28(%rsp),%eax
  4016f1:	69 c0 ee 34 00 00    	imul   $0x34ee,%eax,%eax
  4016f7:	89 44 24 d8          	mov    %eax,-0x28(%rsp)
  4016fb:	8b 44 24 d4          	mov    -0x2c(%rsp),%eax
  4016ff:	69 c0 4a 21 00 00    	imul   $0x214a,%eax,%eax
  401705:	89 44 24 d4          	mov    %eax,-0x2c(%rsp)
  401709:	8b 44 24 dc          	mov    -0x24(%rsp),%eax
  40170d:	69 c0 05 c8 00 00    	imul   $0xc805,%eax,%eax
  401713:	89 44 24 dc          	mov    %eax,-0x24(%rsp)
  401717:	8b 44 24 d0          	mov    -0x30(%rsp),%eax
  40171b:	69 c0 21 3e 00 00    	imul   $0x3e21,%eax,%eax
  401721:	89 44 24 d0          	mov    %eax,-0x30(%rsp)
  401725:	8b 44 24 e8          	mov    -0x18(%rsp),%eax
  401729:	69 c0 5c 3e 00 00    	imul   $0x3e5c,%eax,%eax
  40172f:	89 44 24 e8          	mov    %eax,-0x18(%rsp)
  401733:	8b 44 24 d8          	mov    -0x28(%rsp),%eax
  401737:	69 c0 6c 05 00 00    	imul   $0x56c,%eax,%eax
  40173d:	89 44 24 d8          	mov    %eax,-0x28(%rsp)
  401741:	8b 44 24 f0          	mov    -0x10(%rsp),%eax
  401745:	69 c0 ef 53 00 00    	imul   $0x53ef,%eax,%eax
  40174b:	89 44 24 f0          	mov    %eax,-0x10(%rsp)
  40174f:	8b 44 24 e4          	mov    -0x1c(%rsp),%eax
  401753:	69 c0 b4 a0 00 00    	imul   $0xa0b4,%eax,%eax
  401759:	89 44 24 e4          	mov    %eax,-0x1c(%rsp)
  40175d:	8b 44 24 dc          	mov    -0x24(%rsp),%eax
  401761:	69 c0 d4 c4 00 00    	imul   $0xc4d4,%eax,%eax
  401767:	89 44 24 dc          	mov    %eax,-0x24(%rsp)
  40176b:	8b 44 24 e4          	mov    -0x1c(%rsp),%eax
  40176f:	69 c0 60 f1 00 00    	imul   $0xf160,%eax,%eax
  401775:	89 44 24 e4          	mov    %eax,-0x1c(%rsp)
  401779:	8b 44 24 e0          	mov    -0x20(%rsp),%eax
  40177d:	69 c0 36 86 00 00    	imul   $0x8636,%eax,%eax
  401783:	89 44 24 e0          	mov    %eax,-0x20(%rsp)
  401787:	8b 44 24 d0          	mov    -0x30(%rsp),%eax
  40178b:	69 c0 8b 9a 00 00    	imul   $0x9a8b,%eax,%eax
  401791:	89 44 24 d0          	mov    %eax,-0x30(%rsp)
  401795:	8b 44 24 dc          	mov    -0x24(%rsp),%eax
  401799:	69 c0 cf 86 00 00    	imul   $0x86cf,%eax,%eax
  40179f:	89 44 24 dc          	mov    %eax,-0x24(%rsp)
  4017a3:	8b 44 24 d4          	mov    -0x2c(%rsp),%eax
  4017a7:	69 c0 c1 37 00 00    	imul   $0x37c1,%eax,%eax
  4017ad:	89 44 24 d4          	mov    %eax,-0x2c(%rsp)
  4017b1:	8b 44 24 f4          	mov    -0xc(%rsp),%eax
  4017b5:	69 c0 ed 1d 00 00    	imul   $0x1ded,%eax,%eax
  4017bb:	89 44 24 f4          	mov    %eax,-0xc(%rsp)
  4017bf:	8b 44 24 e4          	mov    -0x1c(%rsp),%eax
  4017c3:	69 c0 67 6e 00 00    	imul   $0x6e67,%eax,%eax
  4017c9:	89 44 24 e4          	mov    %eax,-0x1c(%rsp)
  4017cd:	8b 44 24 dc          	mov    -0x24(%rsp),%eax
  4017d1:	69 c0 6f b6 00 00    	imul   $0xb66f,%eax,%eax
  4017d7:	89 44 24 dc          	mov    %eax,-0x24(%rsp)
  4017db:	8b 44 24 f0          	mov    -0x10(%rsp),%eax
  4017df:	69 c0 51 e7 00 00    	imul   $0xe751,%eax,%eax
  4017e5:	89 44 24 f0          	mov    %eax,-0x10(%rsp)
  4017e9:	8b 44 24 d0          	mov    -0x30(%rsp),%eax
  4017ed:	69 c0 8c a6 00 00    	imul   $0xa68c,%eax,%eax
  4017f3:	89 44 24 d0          	mov    %eax,-0x30(%rsp)
  4017f7:	8b 44 24 e4          	mov    -0x1c(%rsp),%eax
  4017fb:	69 c0 0b b3 00 00    	imul   $0xb30b,%eax,%eax
  401801:	89 44 24 e4          	mov    %eax,-0x1c(%rsp)
  401805:	8b 44 24 e4          	mov    -0x1c(%rsp),%eax
  401809:	69 c0 95 ac 00 00    	imul   $0xac95,%eax,%eax
  40180f:	89 44 24 e4          	mov    %eax,-0x1c(%rsp)
  401813:	8b 44 24 d0          	mov    -0x30(%rsp),%eax
  401817:	69 c0 39 ed 00 00    	imul   $0xed39,%eax,%eax
  40181d:	89 44 24 d0          	mov    %eax,-0x30(%rsp)
  401821:	8b 44 24 e4          	mov    -0x1c(%rsp),%eax
  401825:	69 c0 ab c9 00 00    	imul   $0xc9ab,%eax,%eax
  40182b:	89 44 24 e4          	mov    %eax,-0x1c(%rsp)
  40182f:	8b 44 24 e4          	mov    -0x1c(%rsp),%eax
  401833:	69 c0 5c 49 00 00    	imul   $0x495c,%eax,%eax
  401839:	89 44 24 e4          	mov    %eax,-0x1c(%rsp)
  40183d:	8b 44 24 f0          	mov    -0x10(%rsp),%eax
  401841:	69 c0 96 e4 00 00    	imul   $0xe496,%eax,%eax
  401847:	89 44 24 f0          	mov    %eax,-0x10(%rsp)
  40184b:	8b 44 24 d8          	mov    -0x28(%rsp),%eax
  40184f:	69 c0 89 ba 00 00    	imul   $0xba89,%eax,%eax
  401855:	89 44 24 d8          	mov    %eax,-0x28(%rsp)
  401859:	8b 44 24 d0          	mov    -0x30(%rsp),%eax
  40185d:	69 c0 6f fc 00 00    	imul   $0xfc6f,%eax,%eax
  401863:	89 44 24 d0          	mov    %eax,-0x30(%rsp)
  401867:	8b 44 24 f0          	mov    -0x10(%rsp),%eax
  40186b:	69 c0 93 62 00 00    	imul   $0x6293,%eax,%eax
  401871:	89 44 24 f0          	mov    %eax,-0x10(%rsp)
  401875:	8b 44 24 e0          	mov    -0x20(%rsp),%eax
  401879:	69 c0 db 7c 00 00    	imul   $0x7cdb,%eax,%eax
  40187f:	89 44 24 e0          	mov    %eax,-0x20(%rsp)
  401883:	8b 44 24 d8          	mov    -0x28(%rsp),%eax
  401887:	69 c0 47 d0 00 00    	imul   $0xd047,%eax,%eax
  40188d:	89 44 24 d8          	mov    %eax,-0x28(%rsp)
  401891:	ba 00 00 00 00       	mov    $0x0,%edx
  401896:	b8 00 00 00 00       	mov    $0x0,%eax
  40189b:	eb 0b                	jmp    4018a8 <scramble+0x558>
  40189d:	89 d1                	mov    %edx,%ecx
  40189f:	8b 4c 8c d0          	mov    -0x30(%rsp,%rcx,4),%ecx
  4018a3:	01 c8                	add    %ecx,%eax
  4018a5:	83 c2 01             	add    $0x1,%edx
  4018a8:	83 fa 09             	cmp    $0x9,%edx
  4018ab:	76 f0                	jbe    40189d <scramble+0x54d>
  4018ad:	f3 c3                	repz retq 
  4018af:	90                   	nop

00000000004018b0 <getbuf>:
  4018b0:	48 83 ec 28          	sub    $0x28,%rsp
  4018b4:	48 89 e7             	mov    %rsp,%rdi
  4018b7:	e8 52 03 00 00       	callq  401c0e <Gets>
  4018bc:	b8 01 00 00 00       	mov    $0x1,%eax
  4018c1:	48 83 c4 28          	add    $0x28,%rsp
  4018c5:	c3                   	retq   
  4018c6:	90                   	nop
  4018c7:	90                   	nop

00000000004018c8 <touch1>:
  4018c8:	48 83 ec 08          	sub    $0x8,%rsp
  4018cc:	c7 05 66 33 20 00 01 	movl   $0x1,0x203366(%rip)        # 604c3c <vlevel>
  4018d3:	00 00 00 
  4018d6:	bf 9b 34 40 00       	mov    $0x40349b,%edi
  4018db:	e8 c8 f3 ff ff       	callq  400ca8 <puts@plt>
  4018e0:	bf 01 00 00 00       	mov    $0x1,%edi
  4018e5:	e8 1f 05 00 00       	callq  401e09 <validate>
  4018ea:	bf 00 00 00 00       	mov    $0x0,%edi
  4018ef:	e8 d4 f3 ff ff       	callq  400cc8 <exit@plt>

00000000004018f4 <touch2>:
  4018f4:	48 83 ec 08          	sub    $0x8,%rsp
  4018f8:	89 fe                	mov    %edi,%esi
  4018fa:	c7 05 38 33 20 00 02 	movl   $0x2,0x203338(%rip)        # 604c3c <vlevel>
  401901:	00 00 00 
  401904:	39 3d 3a 33 20 00    	cmp    %edi,0x20333a(%rip)        # 604c44 <cookie>
  40190a:	74 23                	je     40192f <touch2+0x3b>
  40190c:	bf e8 34 40 00       	mov    $0x4034e8,%edi
  401911:	b8 00 00 00 00       	mov    $0x0,%eax
  401916:	e8 4d f3 ff ff       	callq  400c68 <printf@plt>
  40191b:	bf 02 00 00 00       	mov    $0x2,%edi
  401920:	e8 96 05 00 00       	callq  401ebb <fail>
  401925:	bf 00 00 00 00       	mov    $0x0,%edi
  40192a:	e8 99 f3 ff ff       	callq  400cc8 <exit@plt>
  40192f:	bf c0 34 40 00       	mov    $0x4034c0,%edi
  401934:	b8 00 00 00 00       	mov    $0x0,%eax
  401939:	e8 2a f3 ff ff       	callq  400c68 <printf@plt>
  40193e:	bf 02 00 00 00       	mov    $0x2,%edi
  401943:	e8 c1 04 00 00       	callq  401e09 <validate>
  401948:	eb db                	jmp    401925 <touch2+0x31>

000000000040194a <hexmatch>:
  40194a:	41 54                	push   %r12
  40194c:	55                   	push   %rbp
  40194d:	53                   	push   %rbx
  40194e:	48 83 ec 70          	sub    $0x70,%rsp
  401952:	89 fd                	mov    %edi,%ebp
  401954:	48 89 f3             	mov    %rsi,%rbx
  401957:	e8 bc f4 ff ff       	callq  400e18 <random@plt>
  40195c:	48 89 c1             	mov    %rax,%rcx
  40195f:	48 ba 0b d7 a3 70 3d 	mov    $0xa3d70a3d70a3d70b,%rdx
  401966:	0a d7 a3 
  401969:	48 f7 ea             	imul   %rdx
  40196c:	48 01 ca             	add    %rcx,%rdx
  40196f:	48 c1 fa 06          	sar    $0x6,%rdx
  401973:	48 89 c8             	mov    %rcx,%rax
  401976:	48 c1 f8 3f          	sar    $0x3f,%rax
  40197a:	48 29 c2             	sub    %rax,%rdx
  40197d:	48 8d 04 92          	lea    (%rdx,%rdx,4),%rax
  401981:	48 8d 14 80          	lea    (%rax,%rax,4),%rdx
  401985:	48 8d 04 95 00 00 00 	lea    0x0(,%rdx,4),%rax
  40198c:	00 
  40198d:	48 29 c1             	sub    %rax,%rcx
  401990:	4c 8d 24 0c          	lea    (%rsp,%rcx,1),%r12
  401994:	89 ea                	mov    %ebp,%edx
  401996:	be b8 34 40 00       	mov    $0x4034b8,%esi
  40199b:	4c 89 e7             	mov    %r12,%rdi
  40199e:	b8 00 00 00 00       	mov    $0x0,%eax
  4019a3:	e8 c0 f3 ff ff       	callq  400d68 <sprintf@plt>
  4019a8:	ba 09 00 00 00       	mov    $0x9,%edx
  4019ad:	4c 89 e6             	mov    %r12,%rsi
  4019b0:	48 89 df             	mov    %rbx,%rdi
  4019b3:	e8 50 f3 ff ff       	callq  400d08 <strncmp@plt>
  4019b8:	85 c0                	test   %eax,%eax
  4019ba:	0f 94 c0             	sete   %al
  4019bd:	0f b6 c0             	movzbl %al,%eax
  4019c0:	48 83 c4 70          	add    $0x70,%rsp
  4019c4:	5b                   	pop    %rbx
  4019c5:	5d                   	pop    %rbp
  4019c6:	41 5c                	pop    %r12
  4019c8:	c3                   	retq   

00000000004019c9 <touch3>:
  4019c9:	53                   	push   %rbx
  4019ca:	48 89 fb             	mov    %rdi,%rbx
  4019cd:	c7 05 65 32 20 00 03 	movl   $0x3,0x203265(%rip)        # 604c3c <vlevel>
  4019d4:	00 00 00 
  4019d7:	48 89 fe             	mov    %rdi,%rsi
  4019da:	8b 3d 64 32 20 00    	mov    0x203264(%rip),%edi        # 604c44 <cookie>
  4019e0:	e8 65 ff ff ff       	callq  40194a <hexmatch>
  4019e5:	85 c0                	test   %eax,%eax
  4019e7:	74 26                	je     401a0f <touch3+0x46>
  4019e9:	48 89 de             	mov    %rbx,%rsi
  4019ec:	bf 10 35 40 00       	mov    $0x403510,%edi
  4019f1:	b8 00 00 00 00       	mov    $0x0,%eax
  4019f6:	e8 6d f2 ff ff       	callq  400c68 <printf@plt>
  4019fb:	bf 03 00 00 00       	mov    $0x3,%edi
  401a00:	e8 04 04 00 00       	callq  401e09 <validate>
  401a05:	bf 00 00 00 00       	mov    $0x0,%edi
  401a0a:	e8 b9 f2 ff ff       	callq  400cc8 <exit@plt>
  401a0f:	48 89 de             	mov    %rbx,%rsi
  401a12:	bf 38 35 40 00       	mov    $0x403538,%edi
  401a17:	b8 00 00 00 00       	mov    $0x0,%eax
  401a1c:	e8 47 f2 ff ff       	callq  400c68 <printf@plt>
  401a21:	bf 03 00 00 00       	mov    $0x3,%edi
  401a26:	e8 90 04 00 00       	callq  401ebb <fail>
  401a2b:	eb d8                	jmp    401a05 <touch3+0x3c>

0000000000401a2d <test>:
  401a2d:	48 83 ec 08          	sub    $0x8,%rsp
  401a31:	b8 00 00 00 00       	mov    $0x0,%eax
  401a36:	e8 75 fe ff ff       	callq  4018b0 <getbuf>
  401a3b:	89 c6                	mov    %eax,%esi
  401a3d:	bf 60 35 40 00       	mov    $0x403560,%edi
  401a42:	b8 00 00 00 00       	mov    $0x0,%eax
  401a47:	e8 1c f2 ff ff       	callq  400c68 <printf@plt>
  401a4c:	48 83 c4 08          	add    $0x8,%rsp
  401a50:	c3                   	retq   
  401a51:	90                   	nop
  401a52:	90                   	nop
  401a53:	90                   	nop

0000000000401a54 <start_farm>:
  401a54:	b8 01 00 00 00       	mov    $0x1,%eax
  401a59:	c3                   	retq   

0000000000401a5a <addval_435>:
  401a5a:	8d 87 48 89 c7 c7    	lea    -0x383876b8(%rdi),%eax
  401a60:	c3                   	retq   

0000000000401a61 <addval_412>:
  401a61:	8d 87 d7 83 58 90    	lea    -0x6fa77c29(%rdi),%eax
  401a67:	c3                   	retq   

0000000000401a68 <getval_292>:
  401a68:	b8 48 89 c7 92       	mov    $0x92c78948,%eax
  401a6d:	c3                   	retq   

0000000000401a6e <getval_423>:
  401a6e:	b8 48 89 c7 90       	mov    $0x90c78948,%eax
  401a73:	c3                   	retq   

0000000000401a74 <addval_281>:
  401a74:	8d 87 14 48 89 c7    	lea    -0x3876b7ec(%rdi),%eax
  401a7a:	c3                   	retq   

0000000000401a7b <getval_338>:
  401a7b:	b8 18 90 90 c3       	mov    $0xc3909018,%eax
  401a80:	c3                   	retq   

0000000000401a81 <addval_427>:
  401a81:	8d 87 36 c0 d8 90    	lea    -0x6f273fca(%rdi),%eax
  401a87:	c3                   	retq   

0000000000401a88 <setval_388>:
  401a88:	c7 07 35 58 90 90    	movl   $0x90905835,(%rdi)
  401a8e:	c3                   	retq   

0000000000401a8f <mid_farm>:
  401a8f:	b8 01 00 00 00       	mov    $0x1,%eax
  401a94:	c3                   	retq   

0000000000401a95 <add_xy>:
  401a95:	48 8d 04 37          	lea    (%rdi,%rsi,1),%rax
  401a99:	c3                   	retq   

0000000000401a9a <addval_105>:
  401a9a:	8d 87 89 d1 78 c0    	lea    -0x3f872e77(%rdi),%eax
  401aa0:	c3                   	retq   

0000000000401aa1 <getval_371>:
  401aa1:	b8 89 d1 18 d2       	mov    $0xd218d189,%eax
  401aa6:	c3                   	retq   

0000000000401aa7 <addval_129>:
  401aa7:	8d 87 89 d1 18 c0    	lea    -0x3fe72e77(%rdi),%eax
  401aad:	c3                   	retq   

0000000000401aae <getval_137>:
  401aae:	b8 89 ce 90 90       	mov    $0x9090ce89,%eax
  401ab3:	c3                   	retq   

0000000000401ab4 <addval_362>:
  401ab4:	8d 87 48 89 e0 c7    	lea    -0x381f76b8(%rdi),%eax
  401aba:	c3                   	retq   

0000000000401abb <addval_236>:
  401abb:	8d 87 89 ce 30 c0    	lea    -0x3fcf3177(%rdi),%eax
  401ac1:	c3                   	retq   

0000000000401ac2 <setval_151>:
  401ac2:	c7 07 c9 c2 84 db    	movl   $0xdb84c2c9,(%rdi)
  401ac8:	c3                   	retq   

0000000000401ac9 <getval_102>:
  401ac9:	b8 89 d1 90 c3       	mov    $0xc390d189,%eax
  401ace:	c3                   	retq   

0000000000401acf <addval_121>:
  401acf:	8d 87 a9 c2 38 db    	lea    -0x24c73d57(%rdi),%eax
  401ad5:	c3                   	retq   

0000000000401ad6 <addval_378>:
  401ad6:	8d 87 89 c2 94 c0    	lea    -0x3f6b3d77(%rdi),%eax
  401adc:	c3                   	retq   

0000000000401add <setval_443>:
  401add:	c7 07 89 ce 94 d2    	movl   $0xd294ce89,(%rdi)
  401ae3:	c3                   	retq   

0000000000401ae4 <getval_467>:
  401ae4:	b8 89 ce 60 c0       	mov    $0xc060ce89,%eax
  401ae9:	c3                   	retq   

0000000000401aea <addval_479>:
  401aea:	8d 87 99 c2 84 c9    	lea    -0x367b3d67(%rdi),%eax
  401af0:	c3                   	retq   

0000000000401af1 <getval_125>:
  401af1:	b8 99 ce 84 d2       	mov    $0xd284ce99,%eax
  401af6:	c3                   	retq   

0000000000401af7 <getval_276>:
  401af7:	b8 89 08 89 e0       	mov    $0xe0890889,%eax
  401afc:	c3                   	retq   

0000000000401afd <getval_287>:
  401afd:	b8 89 d1 91 c3       	mov    $0xc391d189,%eax
  401b02:	c3                   	retq   

0000000000401b03 <setval_265>:
  401b03:	c7 07 a9 d1 c3 4e    	movl   $0x4ec3d1a9,(%rdi)
  401b09:	c3                   	retq   

0000000000401b0a <addval_480>:
  401b0a:	8d 87 89 ce 90 c3    	lea    -0x3c6f3177(%rdi),%eax
  401b10:	c3                   	retq   

0000000000401b11 <addval_297>:
  401b11:	8d 87 4a 89 e0 c3    	lea    -0x3c1f76b6(%rdi),%eax
  401b17:	c3                   	retq   

0000000000401b18 <setval_313>:
  401b18:	c7 07 89 d1 08 c0    	movl   $0xc008d189,(%rdi)
  401b1e:	c3                   	retq   

0000000000401b1f <getval_100>:
  401b1f:	b8 89 d1 28 db       	mov    $0xdb28d189,%eax
  401b24:	c3                   	retq   

0000000000401b25 <addval_107>:
  401b25:	8d 87 a9 ce 20 c0    	lea    -0x3fdf3157(%rdi),%eax
  401b2b:	c3                   	retq   

0000000000401b2c <setval_367>:
  401b2c:	c7 07 89 c2 20 c0    	movl   $0xc020c289,(%rdi)
  401b32:	c3                   	retq   

0000000000401b33 <addval_191>:
  401b33:	8d 87 89 c2 20 c9    	lea    -0x36df3d77(%rdi),%eax
  401b39:	c3                   	retq   

0000000000401b3a <addval_237>:
  401b3a:	8d 87 48 89 e0 c3    	lea    -0x3c1f76b8(%rdi),%eax
  401b40:	c3                   	retq   

0000000000401b41 <getval_208>:
  401b41:	b8 8b c2 90 c3       	mov    $0xc390c28b,%eax
  401b46:	c3                   	retq   

0000000000401b47 <getval_228>:
  401b47:	b8 ed 40 89 e0       	mov    $0xe08940ed,%eax
  401b4c:	c3                   	retq   

0000000000401b4d <addval_293>:
  401b4d:	8d 87 09 c2 84 c0    	lea    -0x3f7b3df7(%rdi),%eax
  401b53:	c3                   	retq   

0000000000401b54 <setval_363>:
  401b54:	c7 07 6e 89 ce 94    	movl   $0x94ce896e,(%rdi)
  401b5a:	c3                   	retq   

0000000000401b5b <getval_491>:
  401b5b:	b8 48 99 e0 c3       	mov    $0xc3e09948,%eax
  401b60:	c3                   	retq   

0000000000401b61 <addval_175>:
  401b61:	8d 87 48 89 e0 c3    	lea    -0x3c1f76b8(%rdi),%eax
  401b67:	c3                   	retq   

0000000000401b68 <getval_377>:
  401b68:	b8 48 89 e0 92       	mov    $0x92e08948,%eax
  401b6d:	c3                   	retq   

0000000000401b6e <end_farm>:
  401b6e:	b8 01 00 00 00       	mov    $0x1,%eax
  401b73:	c3                   	retq   

0000000000401b74 <save_char>:
  401b74:	8b 05 ea 3c 20 00    	mov    0x203cea(%rip),%eax        # 605864 <gets_cnt>
  401b7a:	3d ff 03 00 00       	cmp    $0x3ff,%eax
  401b7f:	7f 49                	jg     401bca <save_char+0x56>
  401b81:	89 f9                	mov    %edi,%ecx
  401b83:	c0 e9 04             	shr    $0x4,%cl
  401b86:	8d 14 40             	lea    (%rax,%rax,2),%edx
  401b89:	83 e1 0f             	and    $0xf,%ecx
  401b8c:	0f b6 b1 80 38 40 00 	movzbl 0x403880(%rcx),%esi
  401b93:	48 63 ca             	movslq %edx,%rcx
  401b96:	40 88 b1 60 4c 60 00 	mov    %sil,0x604c60(%rcx)
  401b9d:	8d 4a 01             	lea    0x1(%rdx),%ecx
  401ba0:	83 e7 0f             	and    $0xf,%edi
  401ba3:	0f b6 b7 80 38 40 00 	movzbl 0x403880(%rdi),%esi
  401baa:	48 63 c9             	movslq %ecx,%rcx
  401bad:	40 88 b1 60 4c 60 00 	mov    %sil,0x604c60(%rcx)
  401bb4:	83 c2 02             	add    $0x2,%edx
  401bb7:	48 63 d2             	movslq %edx,%rdx
  401bba:	c6 82 60 4c 60 00 20 	movb   $0x20,0x604c60(%rdx)
  401bc1:	83 c0 01             	add    $0x1,%eax
  401bc4:	89 05 9a 3c 20 00    	mov    %eax,0x203c9a(%rip)        # 605864 <gets_cnt>
  401bca:	f3 c3                	repz retq 

0000000000401bcc <save_term>:
  401bcc:	8b 05 92 3c 20 00    	mov    0x203c92(%rip),%eax        # 605864 <gets_cnt>
  401bd2:	8d 04 40             	lea    (%rax,%rax,2),%eax
  401bd5:	48 98                	cltq   
  401bd7:	c6 80 60 4c 60 00 00 	movb   $0x0,0x604c60(%rax)
  401bde:	c3                   	retq   

0000000000401bdf <check_fail>:
  401bdf:	48 83 ec 08          	sub    $0x8,%rsp
  401be3:	0f be 35 7e 3c 20 00 	movsbl 0x203c7e(%rip),%esi        # 605868 <target_prefix>
  401bea:	b9 60 4c 60 00       	mov    $0x604c60,%ecx
  401bef:	8b 15 43 30 20 00    	mov    0x203043(%rip),%edx        # 604c38 <check_level>
  401bf5:	bf 83 35 40 00       	mov    $0x403583,%edi
  401bfa:	b8 00 00 00 00       	mov    $0x0,%eax
  401bff:	e8 64 f0 ff ff       	callq  400c68 <printf@plt>
  401c04:	bf 01 00 00 00       	mov    $0x1,%edi
  401c09:	e8 ba f0 ff ff       	callq  400cc8 <exit@plt>

0000000000401c0e <Gets>:
  401c0e:	41 54                	push   %r12
  401c10:	55                   	push   %rbp
  401c11:	53                   	push   %rbx
  401c12:	49 89 fc             	mov    %rdi,%r12
  401c15:	c7 05 45 3c 20 00 00 	movl   $0x0,0x203c45(%rip)        # 605864 <gets_cnt>
  401c1c:	00 00 00 
  401c1f:	48 89 fb             	mov    %rdi,%rbx
  401c22:	eb 11                	jmp    401c35 <Gets+0x27>
  401c24:	48 8d 6b 01          	lea    0x1(%rbx),%rbp
  401c28:	88 03                	mov    %al,(%rbx)
  401c2a:	0f b6 f8             	movzbl %al,%edi
  401c2d:	e8 42 ff ff ff       	callq  401b74 <save_char>
  401c32:	48 89 eb             	mov    %rbp,%rbx
  401c35:	48 8b 3d f4 2f 20 00 	mov    0x202ff4(%rip),%rdi        # 604c30 <infile>
  401c3c:	e8 07 f1 ff ff       	callq  400d48 <_IO_getc@plt>
  401c41:	83 f8 ff             	cmp    $0xffffffffffffffff,%eax
  401c44:	74 05                	je     401c4b <Gets+0x3d>
  401c46:	83 f8 0a             	cmp    $0xa,%eax
  401c49:	75 d9                	jne    401c24 <Gets+0x16>
  401c4b:	c6 03 00             	movb   $0x0,(%rbx)
  401c4e:	b8 00 00 00 00       	mov    $0x0,%eax
  401c53:	e8 74 ff ff ff       	callq  401bcc <save_term>
  401c58:	4c 89 e0             	mov    %r12,%rax
  401c5b:	5b                   	pop    %rbx
  401c5c:	5d                   	pop    %rbp
  401c5d:	41 5c                	pop    %r12
  401c5f:	c3                   	retq   

0000000000401c60 <notify_server>:
  401c60:	83 3d e1 2f 20 00 00 	cmpl   $0x0,0x202fe1(%rip)        # 604c48 <is_checker>
  401c67:	0f 85 9a 01 00 00    	jne    401e07 <notify_server+0x1a7>
  401c6d:	55                   	push   %rbp
  401c6e:	53                   	push   %rbx
  401c6f:	48 81 ec 08 40 00 00 	sub    $0x4008,%rsp
  401c76:	89 fb                	mov    %edi,%ebx
  401c78:	8b 05 e6 3b 20 00    	mov    0x203be6(%rip),%eax        # 605864 <gets_cnt>
  401c7e:	83 c0 64             	add    $0x64,%eax
  401c81:	3d 00 20 00 00       	cmp    $0x2000,%eax
  401c86:	0f 8f b5 00 00 00    	jg     401d41 <notify_server+0xe1>
  401c8c:	44 0f be 0d d4 3b 20 	movsbl 0x203bd4(%rip),%r9d        # 605868 <target_prefix>
  401c93:	00 
  401c94:	83 3d 2d 2f 20 00 00 	cmpl   $0x0,0x202f2d(%rip)        # 604bc8 <notify>
  401c9b:	0f 84 b9 00 00 00    	je     401d5a <notify_server+0xfa>
  401ca1:	44 8b 05 98 2f 20 00 	mov    0x202f98(%rip),%r8d        # 604c40 <authkey>
  401ca8:	85 db                	test   %ebx,%ebx
  401caa:	0f 84 b5 00 00 00    	je     401d65 <notify_server+0x105>
  401cb0:	bd 99 35 40 00       	mov    $0x403599,%ebp
  401cb5:	68 60 4c 60 00       	pushq  $0x604c60
  401cba:	56                   	push   %rsi
  401cbb:	48 89 e9             	mov    %rbp,%rcx
  401cbe:	8b 15 c4 2b 20 00    	mov    0x202bc4(%rip),%edx        # 604888 <target_id>
  401cc4:	be a3 35 40 00       	mov    $0x4035a3,%esi
  401cc9:	48 8d bc 24 10 20 00 	lea    0x2010(%rsp),%rdi
  401cd0:	00 
  401cd1:	b8 00 00 00 00       	mov    $0x0,%eax
  401cd6:	e8 8d f0 ff ff       	callq  400d68 <sprintf@plt>
  401cdb:	48 83 c4 10          	add    $0x10,%rsp
  401cdf:	83 3d e2 2e 20 00 00 	cmpl   $0x0,0x202ee2(%rip)        # 604bc8 <notify>
  401ce6:	0f 84 ab 00 00 00    	je     401d97 <notify_server+0x137>
  401cec:	85 db                	test   %ebx,%ebx
  401cee:	0f 84 97 00 00 00    	je     401d8b <notify_server+0x12b>
  401cf4:	49 89 e1             	mov    %rsp,%r9
  401cf7:	41 b8 00 00 00 00    	mov    $0x0,%r8d
  401cfd:	48 8d 8c 24 00 20 00 	lea    0x2000(%rsp),%rcx
  401d04:	00 
  401d05:	48 8b 15 84 2b 20 00 	mov    0x202b84(%rip),%rdx        # 604890 <lab>
  401d0c:	48 8b 35 85 2b 20 00 	mov    0x202b85(%rip),%rsi        # 604898 <course>
  401d13:	48 8b 3d 66 2b 20 00 	mov    0x202b66(%rip),%rdi        # 604880 <user_id>
  401d1a:	e8 fc 0f 00 00       	callq  402d1b <driver_post>
  401d1f:	85 c0                	test   %eax,%eax
  401d21:	78 4c                	js     401d6f <notify_server+0x10f>
  401d23:	bf e8 36 40 00       	mov    $0x4036e8,%edi
  401d28:	e8 7b ef ff ff       	callq  400ca8 <puts@plt>
  401d2d:	bf cb 35 40 00       	mov    $0x4035cb,%edi
  401d32:	e8 71 ef ff ff       	callq  400ca8 <puts@plt>
  401d37:	48 81 c4 08 40 00 00 	add    $0x4008,%rsp
  401d3e:	5b                   	pop    %rbx
  401d3f:	5d                   	pop    %rbp
  401d40:	c3                   	retq   
  401d41:	bf b8 36 40 00       	mov    $0x4036b8,%edi
  401d46:	b8 00 00 00 00       	mov    $0x0,%eax
  401d4b:	e8 18 ef ff ff       	callq  400c68 <printf@plt>
  401d50:	bf 01 00 00 00       	mov    $0x1,%edi
  401d55:	e8 6e ef ff ff       	callq  400cc8 <exit@plt>
  401d5a:	41 b8 ff ff ff ff    	mov    $0xffffffff,%r8d
  401d60:	e9 43 ff ff ff       	jmpq   401ca8 <notify_server+0x48>
  401d65:	bd 9e 35 40 00       	mov    $0x40359e,%ebp
  401d6a:	e9 46 ff ff ff       	jmpq   401cb5 <notify_server+0x55>
  401d6f:	48 89 e6             	mov    %rsp,%rsi
  401d72:	bf bf 35 40 00       	mov    $0x4035bf,%edi
  401d77:	b8 00 00 00 00       	mov    $0x0,%eax
  401d7c:	e8 e7 ee ff ff       	callq  400c68 <printf@plt>
  401d81:	bf 01 00 00 00       	mov    $0x1,%edi
  401d86:	e8 3d ef ff ff       	callq  400cc8 <exit@plt>
  401d8b:	bf d5 35 40 00       	mov    $0x4035d5,%edi
  401d90:	e8 13 ef ff ff       	callq  400ca8 <puts@plt>
  401d95:	eb a0                	jmp    401d37 <notify_server+0xd7>
  401d97:	48 89 ee             	mov    %rbp,%rsi
  401d9a:	bf 20 37 40 00       	mov    $0x403720,%edi
  401d9f:	b8 00 00 00 00       	mov    $0x0,%eax
  401da4:	e8 bf ee ff ff       	callq  400c68 <printf@plt>
  401da9:	48 8b 35 d0 2a 20 00 	mov    0x202ad0(%rip),%rsi        # 604880 <user_id>
  401db0:	bf dc 35 40 00       	mov    $0x4035dc,%edi
  401db5:	b8 00 00 00 00       	mov    $0x0,%eax
  401dba:	e8 a9 ee ff ff       	callq  400c68 <printf@plt>
  401dbf:	48 8b 35 d2 2a 20 00 	mov    0x202ad2(%rip),%rsi        # 604898 <course>
  401dc6:	bf e9 35 40 00       	mov    $0x4035e9,%edi
  401dcb:	b8 00 00 00 00       	mov    $0x0,%eax
  401dd0:	e8 93 ee ff ff       	callq  400c68 <printf@plt>
  401dd5:	48 8b 35 b4 2a 20 00 	mov    0x202ab4(%rip),%rsi        # 604890 <lab>
  401ddc:	bf f5 35 40 00       	mov    $0x4035f5,%edi
  401de1:	b8 00 00 00 00       	mov    $0x0,%eax
  401de6:	e8 7d ee ff ff       	callq  400c68 <printf@plt>
  401deb:	48 8d b4 24 00 20 00 	lea    0x2000(%rsp),%rsi
  401df2:	00 
  401df3:	bf fe 35 40 00       	mov    $0x4035fe,%edi
  401df8:	b8 00 00 00 00       	mov    $0x0,%eax
  401dfd:	e8 66 ee ff ff       	callq  400c68 <printf@plt>
  401e02:	e9 30 ff ff ff       	jmpq   401d37 <notify_server+0xd7>
  401e07:	f3 c3                	repz retq 

0000000000401e09 <validate>:
  401e09:	53                   	push   %rbx
  401e0a:	89 fb                	mov    %edi,%ebx
  401e0c:	83 3d 35 2e 20 00 00 	cmpl   $0x0,0x202e35(%rip)        # 604c48 <is_checker>
  401e13:	74 60                	je     401e75 <validate+0x6c>
  401e15:	39 3d 21 2e 20 00    	cmp    %edi,0x202e21(%rip)        # 604c3c <vlevel>
  401e1b:	75 29                	jne    401e46 <validate+0x3d>
  401e1d:	8b 35 15 2e 20 00    	mov    0x202e15(%rip),%esi        # 604c38 <check_level>
  401e23:	39 fe                	cmp    %edi,%esi
  401e25:	75 33                	jne    401e5a <validate+0x51>
  401e27:	0f be 35 3a 3a 20 00 	movsbl 0x203a3a(%rip),%esi        # 605868 <target_prefix>
  401e2e:	b9 60 4c 60 00       	mov    $0x604c60,%ecx
  401e33:	89 fa                	mov    %edi,%edx
  401e35:	bf 28 36 40 00       	mov    $0x403628,%edi
  401e3a:	b8 00 00 00 00       	mov    $0x0,%eax
  401e3f:	e8 24 ee ff ff       	callq  400c68 <printf@plt>
  401e44:	5b                   	pop    %rbx
  401e45:	c3                   	retq   
  401e46:	bf 0a 36 40 00       	mov    $0x40360a,%edi
  401e4b:	e8 58 ee ff ff       	callq  400ca8 <puts@plt>
  401e50:	b8 00 00 00 00       	mov    $0x0,%eax
  401e55:	e8 85 fd ff ff       	callq  401bdf <check_fail>
  401e5a:	89 fa                	mov    %edi,%edx
  401e5c:	bf 48 37 40 00       	mov    $0x403748,%edi
  401e61:	b8 00 00 00 00       	mov    $0x0,%eax
  401e66:	e8 fd ed ff ff       	callq  400c68 <printf@plt>
  401e6b:	b8 00 00 00 00       	mov    $0x0,%eax
  401e70:	e8 6a fd ff ff       	callq  401bdf <check_fail>
  401e75:	39 3d c1 2d 20 00    	cmp    %edi,0x202dc1(%rip)        # 604c3c <vlevel>
  401e7b:	74 18                	je     401e95 <validate+0x8c>
  401e7d:	bf 0a 36 40 00       	mov    $0x40360a,%edi
  401e82:	e8 21 ee ff ff       	callq  400ca8 <puts@plt>
  401e87:	89 de                	mov    %ebx,%esi
  401e89:	bf 00 00 00 00       	mov    $0x0,%edi
  401e8e:	e8 cd fd ff ff       	callq  401c60 <notify_server>
  401e93:	eb af                	jmp    401e44 <validate+0x3b>
  401e95:	0f be 15 cc 39 20 00 	movsbl 0x2039cc(%rip),%edx        # 605868 <target_prefix>
  401e9c:	89 fe                	mov    %edi,%esi
  401e9e:	bf 70 37 40 00       	mov    $0x403770,%edi
  401ea3:	b8 00 00 00 00       	mov    $0x0,%eax
  401ea8:	e8 bb ed ff ff       	callq  400c68 <printf@plt>
  401ead:	89 de                	mov    %ebx,%esi
  401eaf:	bf 01 00 00 00       	mov    $0x1,%edi
  401eb4:	e8 a7 fd ff ff       	callq  401c60 <notify_server>
  401eb9:	eb 89                	jmp    401e44 <validate+0x3b>

0000000000401ebb <fail>:
  401ebb:	48 83 ec 08          	sub    $0x8,%rsp
  401ebf:	83 3d 82 2d 20 00 00 	cmpl   $0x0,0x202d82(%rip)        # 604c48 <is_checker>
  401ec6:	75 11                	jne    401ed9 <fail+0x1e>
  401ec8:	89 fe                	mov    %edi,%esi
  401eca:	bf 00 00 00 00       	mov    $0x0,%edi
  401ecf:	e8 8c fd ff ff       	callq  401c60 <notify_server>
  401ed4:	48 83 c4 08          	add    $0x8,%rsp
  401ed8:	c3                   	retq   
  401ed9:	b8 00 00 00 00       	mov    $0x0,%eax
  401ede:	e8 fc fc ff ff       	callq  401bdf <check_fail>

0000000000401ee3 <bushandler>:
  401ee3:	48 83 ec 08          	sub    $0x8,%rsp
  401ee7:	83 3d 5a 2d 20 00 00 	cmpl   $0x0,0x202d5a(%rip)        # 604c48 <is_checker>
  401eee:	74 14                	je     401f04 <bushandler+0x21>
  401ef0:	bf 3d 36 40 00       	mov    $0x40363d,%edi
  401ef5:	e8 ae ed ff ff       	callq  400ca8 <puts@plt>
  401efa:	b8 00 00 00 00       	mov    $0x0,%eax
  401eff:	e8 db fc ff ff       	callq  401bdf <check_fail>
  401f04:	bf a8 37 40 00       	mov    $0x4037a8,%edi
  401f09:	e8 9a ed ff ff       	callq  400ca8 <puts@plt>
  401f0e:	bf 47 36 40 00       	mov    $0x403647,%edi
  401f13:	e8 90 ed ff ff       	callq  400ca8 <puts@plt>
  401f18:	be 00 00 00 00       	mov    $0x0,%esi
  401f1d:	bf 00 00 00 00       	mov    $0x0,%edi
  401f22:	e8 39 fd ff ff       	callq  401c60 <notify_server>
  401f27:	bf 01 00 00 00       	mov    $0x1,%edi
  401f2c:	e8 97 ed ff ff       	callq  400cc8 <exit@plt>

0000000000401f31 <seghandler>:
  401f31:	48 83 ec 08          	sub    $0x8,%rsp
  401f35:	83 3d 0c 2d 20 00 00 	cmpl   $0x0,0x202d0c(%rip)        # 604c48 <is_checker>
  401f3c:	74 14                	je     401f52 <seghandler+0x21>
  401f3e:	bf 5d 36 40 00       	mov    $0x40365d,%edi
  401f43:	e8 60 ed ff ff       	callq  400ca8 <puts@plt>
  401f48:	b8 00 00 00 00       	mov    $0x0,%eax
  401f4d:	e8 8d fc ff ff       	callq  401bdf <check_fail>
  401f52:	bf c8 37 40 00       	mov    $0x4037c8,%edi
  401f57:	e8 4c ed ff ff       	callq  400ca8 <puts@plt>
  401f5c:	bf 47 36 40 00       	mov    $0x403647,%edi
  401f61:	e8 42 ed ff ff       	callq  400ca8 <puts@plt>
  401f66:	be 00 00 00 00       	mov    $0x0,%esi
  401f6b:	bf 00 00 00 00       	mov    $0x0,%edi
  401f70:	e8 eb fc ff ff       	callq  401c60 <notify_server>
  401f75:	bf 01 00 00 00       	mov    $0x1,%edi
  401f7a:	e8 49 ed ff ff       	callq  400cc8 <exit@plt>

0000000000401f7f <illegalhandler>:
  401f7f:	48 83 ec 08          	sub    $0x8,%rsp
  401f83:	83 3d be 2c 20 00 00 	cmpl   $0x0,0x202cbe(%rip)        # 604c48 <is_checker>
  401f8a:	74 14                	je     401fa0 <illegalhandler+0x21>
  401f8c:	bf 70 36 40 00       	mov    $0x403670,%edi
  401f91:	e8 12 ed ff ff       	callq  400ca8 <puts@plt>
  401f96:	b8 00 00 00 00       	mov    $0x0,%eax
  401f9b:	e8 3f fc ff ff       	callq  401bdf <check_fail>
  401fa0:	bf f0 37 40 00       	mov    $0x4037f0,%edi
  401fa5:	e8 fe ec ff ff       	callq  400ca8 <puts@plt>
  401faa:	bf 47 36 40 00       	mov    $0x403647,%edi
  401faf:	e8 f4 ec ff ff       	callq  400ca8 <puts@plt>
  401fb4:	be 00 00 00 00       	mov    $0x0,%esi
  401fb9:	bf 00 00 00 00       	mov    $0x0,%edi
  401fbe:	e8 9d fc ff ff       	callq  401c60 <notify_server>
  401fc3:	bf 01 00 00 00       	mov    $0x1,%edi
  401fc8:	e8 fb ec ff ff       	callq  400cc8 <exit@plt>

0000000000401fcd <sigalrmhandler>:
  401fcd:	48 83 ec 08          	sub    $0x8,%rsp
  401fd1:	83 3d 70 2c 20 00 00 	cmpl   $0x0,0x202c70(%rip)        # 604c48 <is_checker>
  401fd8:	74 14                	je     401fee <sigalrmhandler+0x21>
  401fda:	bf 84 36 40 00       	mov    $0x403684,%edi
  401fdf:	e8 c4 ec ff ff       	callq  400ca8 <puts@plt>
  401fe4:	b8 00 00 00 00       	mov    $0x0,%eax
  401fe9:	e8 f1 fb ff ff       	callq  401bdf <check_fail>
  401fee:	be 05 00 00 00       	mov    $0x5,%esi
  401ff3:	bf 20 38 40 00       	mov    $0x403820,%edi
  401ff8:	b8 00 00 00 00       	mov    $0x0,%eax
  401ffd:	e8 66 ec ff ff       	callq  400c68 <printf@plt>
  402002:	be 00 00 00 00       	mov    $0x0,%esi
  402007:	bf 00 00 00 00       	mov    $0x0,%edi
  40200c:	e8 4f fc ff ff       	callq  401c60 <notify_server>
  402011:	bf 01 00 00 00       	mov    $0x1,%edi
  402016:	e8 ad ec ff ff       	callq  400cc8 <exit@plt>

000000000040201b <launch>:
  40201b:	55                   	push   %rbp
  40201c:	48 89 e5             	mov    %rsp,%rbp
  40201f:	48 89 fa             	mov    %rdi,%rdx
  402022:	48 8d 47 1e          	lea    0x1e(%rdi),%rax
  402026:	48 83 e0 f0          	and    $0xfffffffffffffff0,%rax
  40202a:	48 29 c4             	sub    %rax,%rsp
  40202d:	48 8d 7c 24 0f       	lea    0xf(%rsp),%rdi
  402032:	48 83 e7 f0          	and    $0xfffffffffffffff0,%rdi
  402036:	be f4 00 00 00       	mov    $0xf4,%esi
  40203b:	e8 38 ec ff ff       	callq  400c78 <memset@plt>
  402040:	48 8b 05 99 2b 20 00 	mov    0x202b99(%rip),%rax        # 604be0 <stdin@@GLIBC_2.2.5>
  402047:	48 39 05 e2 2b 20 00 	cmp    %rax,0x202be2(%rip)        # 604c30 <infile>
  40204e:	74 29                	je     402079 <launch+0x5e>
  402050:	c7 05 e2 2b 20 00 00 	movl   $0x0,0x202be2(%rip)        # 604c3c <vlevel>
  402057:	00 00 00 
  40205a:	b8 00 00 00 00       	mov    $0x0,%eax
  40205f:	e8 c9 f9 ff ff       	callq  401a2d <test>
  402064:	83 3d dd 2b 20 00 00 	cmpl   $0x0,0x202bdd(%rip)        # 604c48 <is_checker>
  40206b:	75 1d                	jne    40208a <launch+0x6f>
  40206d:	bf a4 36 40 00       	mov    $0x4036a4,%edi
  402072:	e8 31 ec ff ff       	callq  400ca8 <puts@plt>
  402077:	c9                   	leaveq 
  402078:	c3                   	retq   
  402079:	bf 8c 36 40 00       	mov    $0x40368c,%edi
  40207e:	b8 00 00 00 00       	mov    $0x0,%eax
  402083:	e8 e0 eb ff ff       	callq  400c68 <printf@plt>
  402088:	eb c6                	jmp    402050 <launch+0x35>
  40208a:	bf 99 36 40 00       	mov    $0x403699,%edi
  40208f:	e8 14 ec ff ff       	callq  400ca8 <puts@plt>
  402094:	b8 00 00 00 00       	mov    $0x0,%eax
  402099:	e8 41 fb ff ff       	callq  401bdf <check_fail>

000000000040209e <stable_launch>:
  40209e:	53                   	push   %rbx
  40209f:	48 89 3d 82 2b 20 00 	mov    %rdi,0x202b82(%rip)        # 604c28 <global_offset>
  4020a6:	41 b9 00 00 00 00    	mov    $0x0,%r9d
  4020ac:	41 b8 00 00 00 00    	mov    $0x0,%r8d
  4020b2:	b9 32 01 00 00       	mov    $0x132,%ecx
  4020b7:	ba 07 00 00 00       	mov    $0x7,%edx
  4020bc:	be 00 00 10 00       	mov    $0x100000,%esi
  4020c1:	bf 00 60 58 55       	mov    $0x55586000,%edi
  4020c6:	e8 8d ed ff ff       	callq  400e58 <mmap@plt>
  4020cb:	48 89 c3             	mov    %rax,%rbx
  4020ce:	48 3d 00 60 58 55    	cmp    $0x55586000,%rax
  4020d4:	75 43                	jne    402119 <stable_launch+0x7b>
  4020d6:	48 8d 90 f8 ff 0f 00 	lea    0xffff8(%rax),%rdx
  4020dd:	48 89 15 8c 37 20 00 	mov    %rdx,0x20378c(%rip)        # 605870 <stack_top>
  4020e4:	48 89 e0             	mov    %rsp,%rax
  4020e7:	48 89 d4             	mov    %rdx,%rsp
  4020ea:	48 89 c2             	mov    %rax,%rdx
  4020ed:	48 89 15 2c 2b 20 00 	mov    %rdx,0x202b2c(%rip)        # 604c20 <global_save_stack>
  4020f4:	48 8b 3d 2d 2b 20 00 	mov    0x202b2d(%rip),%rdi        # 604c28 <global_offset>
  4020fb:	e8 1b ff ff ff       	callq  40201b <launch>
  402100:	48 8b 05 19 2b 20 00 	mov    0x202b19(%rip),%rax        # 604c20 <global_save_stack>
  402107:	48 89 c4             	mov    %rax,%rsp
  40210a:	be 00 00 10 00       	mov    $0x100000,%esi
  40210f:	48 89 df             	mov    %rbx,%rdi
  402112:	e8 f1 ec ff ff       	callq  400e08 <munmap@plt>
  402117:	5b                   	pop    %rbx
  402118:	c3                   	retq   
  402119:	be 00 00 10 00       	mov    $0x100000,%esi
  40211e:	48 89 c7             	mov    %rax,%rdi
  402121:	e8 e2 ec ff ff       	callq  400e08 <munmap@plt>
  402126:	ba 00 60 58 55       	mov    $0x55586000,%edx
  40212b:	be 58 38 40 00       	mov    $0x403858,%esi
  402130:	48 8b 3d d1 2a 20 00 	mov    0x202ad1(%rip),%rdi        # 604c08 <stderr@@GLIBC_2.2.5>
  402137:	b8 00 00 00 00       	mov    $0x0,%eax
  40213c:	e8 e7 ec ff ff       	callq  400e28 <fprintf@plt>
  402141:	bf 01 00 00 00       	mov    $0x1,%edi
  402146:	e8 7d eb ff ff       	callq  400cc8 <exit@plt>
  40214b:	90                   	nop

000000000040214c <rio_readinitb>:
  40214c:	89 37                	mov    %esi,(%rdi)
  40214e:	c7 47 04 00 00 00 00 	movl   $0x0,0x4(%rdi)
  402155:	48 8d 47 10          	lea    0x10(%rdi),%rax
  402159:	48 89 47 08          	mov    %rax,0x8(%rdi)
  40215d:	c3                   	retq   

000000000040215e <sigalrm_handler>:
  40215e:	48 83 ec 08          	sub    $0x8,%rsp
  402162:	ba 00 00 00 00       	mov    $0x0,%edx
  402167:	be 90 38 40 00       	mov    $0x403890,%esi
  40216c:	48 8b 3d 95 2a 20 00 	mov    0x202a95(%rip),%rdi        # 604c08 <stderr@@GLIBC_2.2.5>
  402173:	b8 00 00 00 00       	mov    $0x0,%eax
  402178:	e8 ab ec ff ff       	callq  400e28 <fprintf@plt>
  40217d:	bf 01 00 00 00       	mov    $0x1,%edi
  402182:	e8 41 eb ff ff       	callq  400cc8 <exit@plt>

0000000000402187 <urlencode>:
  402187:	41 54                	push   %r12
  402189:	55                   	push   %rbp
  40218a:	53                   	push   %rbx
  40218b:	48 83 ec 10          	sub    $0x10,%rsp
  40218f:	48 89 fb             	mov    %rdi,%rbx
  402192:	48 89 f5             	mov    %rsi,%rbp
  402195:	48 c7 c1 ff ff ff ff 	mov    $0xffffffffffffffff,%rcx
  40219c:	b8 00 00 00 00       	mov    $0x0,%eax
  4021a1:	f2 ae                	repnz scas %es:(%rdi),%al
  4021a3:	48 89 ce             	mov    %rcx,%rsi
  4021a6:	48 f7 d6             	not    %rsi
  4021a9:	8d 46 ff             	lea    -0x1(%rsi),%eax
  4021ac:	eb 0e                	jmp    4021bc <urlencode+0x35>
  4021ae:	88 45 00             	mov    %al,0x0(%rbp)
  4021b1:	48 8d 6d 01          	lea    0x1(%rbp),%rbp
  4021b5:	48 83 c3 01          	add    $0x1,%rbx
  4021b9:	44 89 e0             	mov    %r12d,%eax
  4021bc:	44 8d 60 ff          	lea    -0x1(%rax),%r12d
  4021c0:	85 c0                	test   %eax,%eax
  4021c2:	0f 84 91 00 00 00    	je     402259 <urlencode+0xd2>
  4021c8:	0f b6 03             	movzbl (%rbx),%eax
  4021cb:	3c 2a                	cmp    $0x2a,%al
  4021cd:	0f 94 c1             	sete   %cl
  4021d0:	3c 2d                	cmp    $0x2d,%al
  4021d2:	0f 94 c2             	sete   %dl
  4021d5:	08 d1                	or     %dl,%cl
  4021d7:	75 d5                	jne    4021ae <urlencode+0x27>
  4021d9:	3c 2e                	cmp    $0x2e,%al
  4021db:	74 d1                	je     4021ae <urlencode+0x27>
  4021dd:	3c 5f                	cmp    $0x5f,%al
  4021df:	74 cd                	je     4021ae <urlencode+0x27>
  4021e1:	8d 50 d0             	lea    -0x30(%rax),%edx
  4021e4:	80 fa 09             	cmp    $0x9,%dl
  4021e7:	76 c5                	jbe    4021ae <urlencode+0x27>
  4021e9:	8d 50 bf             	lea    -0x41(%rax),%edx
  4021ec:	80 fa 19             	cmp    $0x19,%dl
  4021ef:	76 bd                	jbe    4021ae <urlencode+0x27>
  4021f1:	8d 50 9f             	lea    -0x61(%rax),%edx
  4021f4:	80 fa 19             	cmp    $0x19,%dl
  4021f7:	76 b5                	jbe    4021ae <urlencode+0x27>
  4021f9:	3c 20                	cmp    $0x20,%al
  4021fb:	74 4a                	je     402247 <urlencode+0xc0>
  4021fd:	8d 50 e0             	lea    -0x20(%rax),%edx
  402200:	80 fa 5f             	cmp    $0x5f,%dl
  402203:	0f 96 c1             	setbe  %cl
  402206:	3c 09                	cmp    $0x9,%al
  402208:	0f 94 c2             	sete   %dl
  40220b:	08 d1                	or     %dl,%cl
  40220d:	74 45                	je     402254 <urlencode+0xcd>
  40220f:	0f b6 d0             	movzbl %al,%edx
  402212:	be 28 39 40 00       	mov    $0x403928,%esi
  402217:	48 8d 7c 24 08       	lea    0x8(%rsp),%rdi
  40221c:	b8 00 00 00 00       	mov    $0x0,%eax
  402221:	e8 42 eb ff ff       	callq  400d68 <sprintf@plt>
  402226:	0f b6 44 24 08       	movzbl 0x8(%rsp),%eax
  40222b:	88 45 00             	mov    %al,0x0(%rbp)
  40222e:	0f b6 44 24 09       	movzbl 0x9(%rsp),%eax
  402233:	88 45 01             	mov    %al,0x1(%rbp)
  402236:	0f b6 44 24 0a       	movzbl 0xa(%rsp),%eax
  40223b:	88 45 02             	mov    %al,0x2(%rbp)
  40223e:	48 8d 6d 03          	lea    0x3(%rbp),%rbp
  402242:	e9 6e ff ff ff       	jmpq   4021b5 <urlencode+0x2e>
  402247:	c6 45 00 2b          	movb   $0x2b,0x0(%rbp)
  40224b:	48 8d 6d 01          	lea    0x1(%rbp),%rbp
  40224f:	e9 61 ff ff ff       	jmpq   4021b5 <urlencode+0x2e>
  402254:	b8 ff ff ff ff       	mov    $0xffffffff,%eax
  402259:	48 83 c4 10          	add    $0x10,%rsp
  40225d:	5b                   	pop    %rbx
  40225e:	5d                   	pop    %rbp
  40225f:	41 5c                	pop    %r12
  402261:	c3                   	retq   

0000000000402262 <rio_writen>:
  402262:	41 55                	push   %r13
  402264:	41 54                	push   %r12
  402266:	55                   	push   %rbp
  402267:	53                   	push   %rbx
  402268:	48 83 ec 08          	sub    $0x8,%rsp
  40226c:	41 89 fc             	mov    %edi,%r12d
  40226f:	48 89 f5             	mov    %rsi,%rbp
  402272:	49 89 d5             	mov    %rdx,%r13
  402275:	48 89 d3             	mov    %rdx,%rbx
  402278:	eb 06                	jmp    402280 <rio_writen+0x1e>
  40227a:	48 29 c3             	sub    %rax,%rbx
  40227d:	48 01 c5             	add    %rax,%rbp
  402280:	48 85 db             	test   %rbx,%rbx
  402283:	74 24                	je     4022a9 <rio_writen+0x47>
  402285:	48 89 da             	mov    %rbx,%rdx
  402288:	48 89 ee             	mov    %rbp,%rsi
  40228b:	44 89 e7             	mov    %r12d,%edi
  40228e:	e8 a5 eb ff ff       	callq  400e38 <write@plt>
  402293:	48 85 c0             	test   %rax,%rax
  402296:	7f e2                	jg     40227a <rio_writen+0x18>
  402298:	e8 4b eb ff ff       	callq  400de8 <__errno_location@plt>
  40229d:	83 38 04             	cmpl   $0x4,(%rax)
  4022a0:	75 15                	jne    4022b7 <rio_writen+0x55>
  4022a2:	b8 00 00 00 00       	mov    $0x0,%eax
  4022a7:	eb d1                	jmp    40227a <rio_writen+0x18>
  4022a9:	4c 89 e8             	mov    %r13,%rax
  4022ac:	48 83 c4 08          	add    $0x8,%rsp
  4022b0:	5b                   	pop    %rbx
  4022b1:	5d                   	pop    %rbp
  4022b2:	41 5c                	pop    %r12
  4022b4:	41 5d                	pop    %r13
  4022b6:	c3                   	retq   
  4022b7:	48 c7 c0 ff ff ff ff 	mov    $0xffffffffffffffff,%rax
  4022be:	eb ec                	jmp    4022ac <rio_writen+0x4a>

00000000004022c0 <rio_read>:
  4022c0:	41 55                	push   %r13
  4022c2:	41 54                	push   %r12
  4022c4:	55                   	push   %rbp
  4022c5:	53                   	push   %rbx
  4022c6:	48 83 ec 08          	sub    $0x8,%rsp
  4022ca:	48 89 fb             	mov    %rdi,%rbx
  4022cd:	49 89 f5             	mov    %rsi,%r13
  4022d0:	49 89 d4             	mov    %rdx,%r12
  4022d3:	eb 0a                	jmp    4022df <rio_read+0x1f>
  4022d5:	e8 0e eb ff ff       	callq  400de8 <__errno_location@plt>
  4022da:	83 38 04             	cmpl   $0x4,(%rax)
  4022dd:	75 5c                	jne    40233b <rio_read+0x7b>
  4022df:	8b 6b 04             	mov    0x4(%rbx),%ebp
  4022e2:	85 ed                	test   %ebp,%ebp
  4022e4:	7f 24                	jg     40230a <rio_read+0x4a>
  4022e6:	48 8d 6b 10          	lea    0x10(%rbx),%rbp
  4022ea:	ba 00 20 00 00       	mov    $0x2000,%edx
  4022ef:	48 89 ee             	mov    %rbp,%rsi
  4022f2:	8b 3b                	mov    (%rbx),%edi
  4022f4:	e8 ff e9 ff ff       	callq  400cf8 <read@plt>
  4022f9:	89 43 04             	mov    %eax,0x4(%rbx)
  4022fc:	85 c0                	test   %eax,%eax
  4022fe:	78 d5                	js     4022d5 <rio_read+0x15>
  402300:	85 c0                	test   %eax,%eax
  402302:	74 40                	je     402344 <rio_read+0x84>
  402304:	48 89 6b 08          	mov    %rbp,0x8(%rbx)
  402308:	eb d5                	jmp    4022df <rio_read+0x1f>
  40230a:	89 e8                	mov    %ebp,%eax
  40230c:	4c 39 e0             	cmp    %r12,%rax
  40230f:	72 03                	jb     402314 <rio_read+0x54>
  402311:	44 89 e5             	mov    %r12d,%ebp
  402314:	4c 63 e5             	movslq %ebp,%r12
  402317:	48 8b 73 08          	mov    0x8(%rbx),%rsi
  40231b:	4c 89 e2             	mov    %r12,%rdx
  40231e:	4c 89 ef             	mov    %r13,%rdi
  402321:	e8 82 ea ff ff       	callq  400da8 <memcpy@plt>
  402326:	4c 01 63 08          	add    %r12,0x8(%rbx)
  40232a:	29 6b 04             	sub    %ebp,0x4(%rbx)
  40232d:	4c 89 e0             	mov    %r12,%rax
  402330:	48 83 c4 08          	add    $0x8,%rsp
  402334:	5b                   	pop    %rbx
  402335:	5d                   	pop    %rbp
  402336:	41 5c                	pop    %r12
  402338:	41 5d                	pop    %r13
  40233a:	c3                   	retq   
  40233b:	48 c7 c0 ff ff ff ff 	mov    $0xffffffffffffffff,%rax
  402342:	eb ec                	jmp    402330 <rio_read+0x70>
  402344:	b8 00 00 00 00       	mov    $0x0,%eax
  402349:	eb e5                	jmp    402330 <rio_read+0x70>

000000000040234b <rio_readlineb>:
  40234b:	41 55                	push   %r13
  40234d:	41 54                	push   %r12
  40234f:	55                   	push   %rbp
  402350:	53                   	push   %rbx
  402351:	48 83 ec 18          	sub    $0x18,%rsp
  402355:	49 89 fd             	mov    %rdi,%r13
  402358:	48 89 f5             	mov    %rsi,%rbp
  40235b:	49 89 d4             	mov    %rdx,%r12
  40235e:	bb 01 00 00 00       	mov    $0x1,%ebx
  402363:	4c 39 e3             	cmp    %r12,%rbx
  402366:	73 47                	jae    4023af <rio_readlineb+0x64>
  402368:	ba 01 00 00 00       	mov    $0x1,%edx
  40236d:	48 8d 74 24 0f       	lea    0xf(%rsp),%rsi
  402372:	4c 89 ef             	mov    %r13,%rdi
  402375:	e8 46 ff ff ff       	callq  4022c0 <rio_read>
  40237a:	83 f8 01             	cmp    $0x1,%eax
  40237d:	75 1c                	jne    40239b <rio_readlineb+0x50>
  40237f:	48 8d 45 01          	lea    0x1(%rbp),%rax
  402383:	0f b6 54 24 0f       	movzbl 0xf(%rsp),%edx
  402388:	88 55 00             	mov    %dl,0x0(%rbp)
  40238b:	80 7c 24 0f 0a       	cmpb   $0xa,0xf(%rsp)
  402390:	74 1a                	je     4023ac <rio_readlineb+0x61>
  402392:	48 83 c3 01          	add    $0x1,%rbx
  402396:	48 89 c5             	mov    %rax,%rbp
  402399:	eb c8                	jmp    402363 <rio_readlineb+0x18>
  40239b:	85 c0                	test   %eax,%eax
  40239d:	75 22                	jne    4023c1 <rio_readlineb+0x76>
  40239f:	48 83 fb 01          	cmp    $0x1,%rbx
  4023a3:	75 0a                	jne    4023af <rio_readlineb+0x64>
  4023a5:	b8 00 00 00 00       	mov    $0x0,%eax
  4023aa:	eb 0a                	jmp    4023b6 <rio_readlineb+0x6b>
  4023ac:	48 89 c5             	mov    %rax,%rbp
  4023af:	c6 45 00 00          	movb   $0x0,0x0(%rbp)
  4023b3:	48 89 d8             	mov    %rbx,%rax
  4023b6:	48 83 c4 18          	add    $0x18,%rsp
  4023ba:	5b                   	pop    %rbx
  4023bb:	5d                   	pop    %rbp
  4023bc:	41 5c                	pop    %r12
  4023be:	41 5d                	pop    %r13
  4023c0:	c3                   	retq   
  4023c1:	48 c7 c0 ff ff ff ff 	mov    $0xffffffffffffffff,%rax
  4023c8:	eb ec                	jmp    4023b6 <rio_readlineb+0x6b>

00000000004023ca <submitr>:
  4023ca:	41 57                	push   %r15
  4023cc:	41 56                	push   %r14
  4023ce:	41 55                	push   %r13
  4023d0:	41 54                	push   %r12
  4023d2:	55                   	push   %rbp
  4023d3:	53                   	push   %rbx
  4023d4:	48 81 ec 48 a0 00 00 	sub    $0xa048,%rsp
  4023db:	49 89 fc             	mov    %rdi,%r12
  4023de:	89 74 24 04          	mov    %esi,0x4(%rsp)
  4023e2:	49 89 d7             	mov    %rdx,%r15
  4023e5:	49 89 ce             	mov    %rcx,%r14
  4023e8:	4c 89 44 24 08       	mov    %r8,0x8(%rsp)
  4023ed:	4d 89 cd             	mov    %r9,%r13
  4023f0:	48 8b ac 24 80 a0 00 	mov    0xa080(%rsp),%rbp
  4023f7:	00 
  4023f8:	c7 84 24 1c 20 00 00 	movl   $0x0,0x201c(%rsp)
  4023ff:	00 00 00 00 
  402403:	ba 00 00 00 00       	mov    $0x0,%edx
  402408:	be 01 00 00 00       	mov    $0x1,%esi
  40240d:	bf 02 00 00 00       	mov    $0x2,%edi
  402412:	e8 b1 e9 ff ff       	callq  400dc8 <socket@plt>
  402417:	85 c0                	test   %eax,%eax
  402419:	0f 88 c4 01 00 00    	js     4025e3 <submitr+0x219>
  40241f:	89 c3                	mov    %eax,%ebx
  402421:	4c 89 e7             	mov    %r12,%rdi
  402424:	e8 6f e8 ff ff       	callq  400c98 <gethostbyname@plt>
  402429:	48 85 c0             	test   %rax,%rax
  40242c:	0f 84 00 02 00 00    	je     402632 <submitr+0x268>
  402432:	48 c7 84 24 30 a0 00 	movq   $0x0,0xa030(%rsp)
  402439:	00 00 00 00 00 
  40243e:	48 c7 84 24 38 a0 00 	movq   $0x0,0xa038(%rsp)
  402445:	00 00 00 00 00 
  40244a:	66 c7 84 24 30 a0 00 	movw   $0x2,0xa030(%rsp)
  402451:	00 02 00 
  402454:	48 8b 48 18          	mov    0x18(%rax),%rcx
  402458:	48 63 50 14          	movslq 0x14(%rax),%rdx
  40245c:	48 8d b4 24 34 a0 00 	lea    0xa034(%rsp),%rsi
  402463:	00 
  402464:	48 8b 39             	mov    (%rcx),%rdi
  402467:	e8 ec e8 ff ff       	callq  400d58 <bcopy@plt>
  40246c:	0f b7 44 24 04       	movzwl 0x4(%rsp),%eax
  402471:	66 c1 c8 08          	ror    $0x8,%ax
  402475:	66 89 84 24 32 a0 00 	mov    %ax,0xa032(%rsp)
  40247c:	00 
  40247d:	ba 10 00 00 00       	mov    $0x10,%edx
  402482:	48 8d b4 24 30 a0 00 	lea    0xa030(%rsp),%rsi
  402489:	00 
  40248a:	89 df                	mov    %ebx,%edi
  40248c:	e8 f7 e8 ff ff       	callq  400d88 <connect@plt>
  402491:	85 c0                	test   %eax,%eax
  402493:	0f 88 01 02 00 00    	js     40269a <submitr+0x2d0>
  402499:	48 c7 c6 ff ff ff ff 	mov    $0xffffffffffffffff,%rsi
  4024a0:	b8 00 00 00 00       	mov    $0x0,%eax
  4024a5:	48 89 f1             	mov    %rsi,%rcx
  4024a8:	4c 89 ef             	mov    %r13,%rdi
  4024ab:	f2 ae                	repnz scas %es:(%rdi),%al
  4024ad:	48 89 ca             	mov    %rcx,%rdx
  4024b0:	48 f7 d2             	not    %rdx
  4024b3:	48 89 f1             	mov    %rsi,%rcx
  4024b6:	4c 89 ff             	mov    %r15,%rdi
  4024b9:	f2 ae                	repnz scas %es:(%rdi),%al
  4024bb:	48 f7 d1             	not    %rcx
  4024be:	49 89 c8             	mov    %rcx,%r8
  4024c1:	48 89 f1             	mov    %rsi,%rcx
  4024c4:	4c 89 f7             	mov    %r14,%rdi
  4024c7:	f2 ae                	repnz scas %es:(%rdi),%al
  4024c9:	48 f7 d1             	not    %rcx
  4024cc:	4d 8d 44 08 fe       	lea    -0x2(%r8,%rcx,1),%r8
  4024d1:	48 89 f1             	mov    %rsi,%rcx
  4024d4:	48 8b 7c 24 08       	mov    0x8(%rsp),%rdi
  4024d9:	f2 ae                	repnz scas %es:(%rdi),%al
  4024db:	48 89 c8             	mov    %rcx,%rax
  4024de:	48 f7 d0             	not    %rax
  4024e1:	49 8d 4c 00 ff       	lea    -0x1(%r8,%rax,1),%rcx
  4024e6:	48 8d 44 52 fd       	lea    -0x3(%rdx,%rdx,2),%rax
  4024eb:	48 8d 84 01 80 00 00 	lea    0x80(%rcx,%rax,1),%rax
  4024f2:	00 
  4024f3:	48 3d 00 20 00 00    	cmp    $0x2000,%rax
  4024f9:	0f 87 f5 01 00 00    	ja     4026f4 <submitr+0x32a>
  4024ff:	48 8d b4 24 20 40 00 	lea    0x4020(%rsp),%rsi
  402506:	00 
  402507:	b9 00 04 00 00       	mov    $0x400,%ecx
  40250c:	b8 00 00 00 00       	mov    $0x0,%eax
  402511:	48 89 f7             	mov    %rsi,%rdi
  402514:	f3 48 ab             	rep stos %rax,%es:(%rdi)
  402517:	4c 89 ef             	mov    %r13,%rdi
  40251a:	e8 68 fc ff ff       	callq  402187 <urlencode>
  40251f:	85 c0                	test   %eax,%eax
  402521:	0f 88 40 02 00 00    	js     402767 <submitr+0x39d>
  402527:	4c 8d ac 24 20 60 00 	lea    0x6020(%rsp),%r13
  40252e:	00 
  40252f:	4d 89 e1             	mov    %r12,%r9
  402532:	4c 8d 84 24 20 40 00 	lea    0x4020(%rsp),%r8
  402539:	00 
  40253a:	4c 89 f9             	mov    %r15,%rcx
  40253d:	4c 89 f2             	mov    %r14,%rdx
  402540:	be b8 38 40 00       	mov    $0x4038b8,%esi
  402545:	4c 89 ef             	mov    %r13,%rdi
  402548:	b8 00 00 00 00       	mov    $0x0,%eax
  40254d:	e8 16 e8 ff ff       	callq  400d68 <sprintf@plt>
  402552:	48 c7 c1 ff ff ff ff 	mov    $0xffffffffffffffff,%rcx
  402559:	b8 00 00 00 00       	mov    $0x0,%eax
  40255e:	4c 89 ef             	mov    %r13,%rdi
  402561:	f2 ae                	repnz scas %es:(%rdi),%al
  402563:	48 89 ca             	mov    %rcx,%rdx
  402566:	48 f7 d2             	not    %rdx
  402569:	48 8d 52 ff          	lea    -0x1(%rdx),%rdx
  40256d:	4c 89 ee             	mov    %r13,%rsi
  402570:	89 df                	mov    %ebx,%edi
  402572:	e8 eb fc ff ff       	callq  402262 <rio_writen>
  402577:	48 85 c0             	test   %rax,%rax
  40257a:	0f 88 72 02 00 00    	js     4027f2 <submitr+0x428>
  402580:	89 de                	mov    %ebx,%esi
  402582:	48 8d bc 24 20 80 00 	lea    0x8020(%rsp),%rdi
  402589:	00 
  40258a:	e8 bd fb ff ff       	callq  40214c <rio_readinitb>
  40258f:	ba 00 20 00 00       	mov    $0x2000,%edx
  402594:	48 8d b4 24 20 60 00 	lea    0x6020(%rsp),%rsi
  40259b:	00 
  40259c:	48 8d bc 24 20 80 00 	lea    0x8020(%rsp),%rdi
  4025a3:	00 
  4025a4:	e8 a2 fd ff ff       	callq  40234b <rio_readlineb>
  4025a9:	48 85 c0             	test   %rax,%rax
  4025ac:	0f 8e af 02 00 00    	jle    402861 <submitr+0x497>
  4025b2:	4c 8d 44 24 10       	lea    0x10(%rsp),%r8
  4025b7:	48 8d 8c 24 1c 20 00 	lea    0x201c(%rsp),%rcx
  4025be:	00 
  4025bf:	48 8d 94 24 20 20 00 	lea    0x2020(%rsp),%rdx
  4025c6:	00 
  4025c7:	be 2f 39 40 00       	mov    $0x40392f,%esi
  4025cc:	48 8d bc 24 20 60 00 	lea    0x6020(%rsp),%rdi
  4025d3:	00 
  4025d4:	b8 00 00 00 00       	mov    $0x0,%eax
  4025d9:	e8 da e6 ff ff       	callq  400cb8 <__isoc99_sscanf@plt>
  4025de:	e9 a7 03 00 00       	jmpq   40298a <submitr+0x5c0>
  4025e3:	48 b8 45 72 72 6f 72 	mov    $0x43203a726f727245,%rax
  4025ea:	3a 20 43 
  4025ed:	48 ba 6c 69 65 6e 74 	mov    $0x6e7520746e65696c,%rdx
  4025f4:	20 75 6e 
  4025f7:	48 89 45 00          	mov    %rax,0x0(%rbp)
  4025fb:	48 89 55 08          	mov    %rdx,0x8(%rbp)
  4025ff:	48 b8 61 62 6c 65 20 	mov    $0x206f7420656c6261,%rax
  402606:	74 6f 20 
  402609:	48 ba 63 72 65 61 74 	mov    $0x7320657461657263,%rdx
  402610:	65 20 73 
  402613:	48 89 45 10          	mov    %rax,0x10(%rbp)
  402617:	48 89 55 18          	mov    %rdx,0x18(%rbp)
  40261b:	c7 45 20 6f 63 6b 65 	movl   $0x656b636f,0x20(%rbp)
  402622:	66 c7 45 24 74 00    	movw   $0x74,0x24(%rbp)
  402628:	b8 ff ff ff ff       	mov    $0xffffffff,%eax
  40262d:	e9 1f 03 00 00       	jmpq   402951 <submitr+0x587>
  402632:	48 b8 45 72 72 6f 72 	mov    $0x44203a726f727245,%rax
  402639:	3a 20 44 
  40263c:	48 ba 4e 53 20 69 73 	mov    $0x6e7520736920534e,%rdx
  402643:	20 75 6e 
  402646:	48 89 45 00          	mov    %rax,0x0(%rbp)
  40264a:	48 89 55 08          	mov    %rdx,0x8(%rbp)
  40264e:	48 b8 61 62 6c 65 20 	mov    $0x206f7420656c6261,%rax
  402655:	74 6f 20 
  402658:	48 ba 72 65 73 6f 6c 	mov    $0x2065766c6f736572,%rdx
  40265f:	76 65 20 
  402662:	48 89 45 10          	mov    %rax,0x10(%rbp)
  402666:	48 89 55 18          	mov    %rdx,0x18(%rbp)
  40266a:	48 b8 73 65 72 76 65 	mov    $0x6120726576726573,%rax
  402671:	72 20 61 
  402674:	48 89 45 20          	mov    %rax,0x20(%rbp)
  402678:	c7 45 28 64 64 72 65 	movl   $0x65726464,0x28(%rbp)
  40267f:	66 c7 45 2c 73 73    	movw   $0x7373,0x2c(%rbp)
  402685:	c6 45 2e 00          	movb   $0x0,0x2e(%rbp)
  402689:	89 df                	mov    %ebx,%edi
  40268b:	e8 f8 e5 ff ff       	callq  400c88 <close@plt>
  402690:	b8 ff ff ff ff       	mov    $0xffffffff,%eax
  402695:	e9 b7 02 00 00       	jmpq   402951 <submitr+0x587>
  40269a:	48 b8 45 72 72 6f 72 	mov    $0x55203a726f727245,%rax
  4026a1:	3a 20 55 
  4026a4:	48 ba 6e 61 62 6c 65 	mov    $0x6f7420656c62616e,%rdx
  4026ab:	20 74 6f 
  4026ae:	48 89 45 00          	mov    %rax,0x0(%rbp)
  4026b2:	48 89 55 08          	mov    %rdx,0x8(%rbp)
  4026b6:	48 b8 20 63 6f 6e 6e 	mov    $0x7463656e6e6f6320,%rax
  4026bd:	65 63 74 
  4026c0:	48 ba 20 74 6f 20 74 	mov    $0x20656874206f7420,%rdx
  4026c7:	68 65 20 
  4026ca:	48 89 45 10          	mov    %rax,0x10(%rbp)
  4026ce:	48 89 55 18          	mov    %rdx,0x18(%rbp)
  4026d2:	c7 45 20 73 65 72 76 	movl   $0x76726573,0x20(%rbp)
  4026d9:	66 c7 45 24 65 72    	movw   $0x7265,0x24(%rbp)
  4026df:	c6 45 26 00          	movb   $0x0,0x26(%rbp)
  4026e3:	89 df                	mov    %ebx,%edi
  4026e5:	e8 9e e5 ff ff       	callq  400c88 <close@plt>
  4026ea:	b8 ff ff ff ff       	mov    $0xffffffff,%eax
  4026ef:	e9 5d 02 00 00       	jmpq   402951 <submitr+0x587>
  4026f4:	48 b8 45 72 72 6f 72 	mov    $0x52203a726f727245,%rax
  4026fb:	3a 20 52 
  4026fe:	48 ba 65 73 75 6c 74 	mov    $0x747320746c757365,%rdx
  402705:	20 73 74 
  402708:	48 89 45 00          	mov    %rax,0x0(%rbp)
  40270c:	48 89 55 08          	mov    %rdx,0x8(%rbp)
  402710:	48 b8 72 69 6e 67 20 	mov    $0x6f6f7420676e6972,%rax
  402717:	74 6f 6f 
  40271a:	48 ba 20 6c 61 72 67 	mov    $0x202e656772616c20,%rdx
  402721:	65 2e 20 
  402724:	48 89 45 10          	mov    %rax,0x10(%rbp)
  402728:	48 89 55 18          	mov    %rdx,0x18(%rbp)
  40272c:	48 b8 49 6e 63 72 65 	mov    $0x6573616572636e49,%rax
  402733:	61 73 65 
  402736:	48 ba 20 53 55 42 4d 	mov    $0x5254494d42555320,%rdx
  40273d:	49 54 52 
  402740:	48 89 45 20          	mov    %rax,0x20(%rbp)
  402744:	48 89 55 28          	mov    %rdx,0x28(%rbp)
  402748:	48 b8 5f 4d 41 58 42 	mov    $0x46554258414d5f,%rax
  40274f:	55 46 00 
  402752:	48 89 45 30          	mov    %rax,0x30(%rbp)
  402756:	89 df                	mov    %ebx,%edi
  402758:	e8 2b e5 ff ff       	callq  400c88 <close@plt>
  40275d:	b8 ff ff ff ff       	mov    $0xffffffff,%eax
  402762:	e9 ea 01 00 00       	jmpq   402951 <submitr+0x587>
  402767:	48 b8 45 72 72 6f 72 	mov    $0x52203a726f727245,%rax
  40276e:	3a 20 52 
  402771:	48 ba 65 73 75 6c 74 	mov    $0x747320746c757365,%rdx
  402778:	20 73 74 
  40277b:	48 89 45 00          	mov    %rax,0x0(%rbp)
  40277f:	48 89 55 08          	mov    %rdx,0x8(%rbp)
  402783:	48 b8 72 69 6e 67 20 	mov    $0x6e6f6320676e6972,%rax
  40278a:	63 6f 6e 
  40278d:	48 ba 74 61 69 6e 73 	mov    $0x6e6120736e696174,%rdx
  402794:	20 61 6e 
  402797:	48 89 45 10          	mov    %rax,0x10(%rbp)
  40279b:	48 89 55 18          	mov    %rdx,0x18(%rbp)
  40279f:	48 b8 20 69 6c 6c 65 	mov    $0x6c6167656c6c6920,%rax
  4027a6:	67 61 6c 
  4027a9:	48 ba 20 6f 72 20 75 	mov    $0x72706e7520726f20,%rdx
  4027b0:	6e 70 72 
  4027b3:	48 89 45 20          	mov    %rax,0x20(%rbp)
  4027b7:	48 89 55 28          	mov    %rdx,0x28(%rbp)
  4027bb:	48 b8 69 6e 74 61 62 	mov    $0x20656c6261746e69,%rax
  4027c2:	6c 65 20 
  4027c5:	48 ba 63 68 61 72 61 	mov    $0x6574636172616863,%rdx
  4027cc:	63 74 65 
  4027cf:	48 89 45 30          	mov    %rax,0x30(%rbp)
  4027d3:	48 89 55 38          	mov    %rdx,0x38(%rbp)
  4027d7:	66 c7 45 40 72 2e    	movw   $0x2e72,0x40(%rbp)
  4027dd:	c6 45 42 00          	movb   $0x0,0x42(%rbp)
  4027e1:	89 df                	mov    %ebx,%edi
  4027e3:	e8 a0 e4 ff ff       	callq  400c88 <close@plt>
  4027e8:	b8 ff ff ff ff       	mov    $0xffffffff,%eax
  4027ed:	e9 5f 01 00 00       	jmpq   402951 <submitr+0x587>
  4027f2:	48 b8 45 72 72 6f 72 	mov    $0x43203a726f727245,%rax
  4027f9:	3a 20 43 
  4027fc:	48 ba 6c 69 65 6e 74 	mov    $0x6e7520746e65696c,%rdx
  402803:	20 75 6e 
  402806:	48 89 45 00          	mov    %rax,0x0(%rbp)
  40280a:	48 89 55 08          	mov    %rdx,0x8(%rbp)
  40280e:	48 b8 61 62 6c 65 20 	mov    $0x206f7420656c6261,%rax
  402815:	74 6f 20 
  402818:	48 ba 77 72 69 74 65 	mov    $0x6f74206574697277,%rdx
  40281f:	20 74 6f 
  402822:	48 89 45 10          	mov    %rax,0x10(%rbp)
  402826:	48 89 55 18          	mov    %rdx,0x18(%rbp)
  40282a:	48 b8 20 74 68 65 20 	mov    $0x7365722065687420,%rax
  402831:	72 65 73 
  402834:	48 ba 75 6c 74 20 73 	mov    $0x7672657320746c75,%rdx
  40283b:	65 72 76 
  40283e:	48 89 45 20          	mov    %rax,0x20(%rbp)
  402842:	48 89 55 28          	mov    %rdx,0x28(%rbp)
  402846:	66 c7 45 30 65 72    	movw   $0x7265,0x30(%rbp)
  40284c:	c6 45 32 00          	movb   $0x0,0x32(%rbp)
  402850:	89 df                	mov    %ebx,%edi
  402852:	e8 31 e4 ff ff       	callq  400c88 <close@plt>
  402857:	b8 ff ff ff ff       	mov    $0xffffffff,%eax
  40285c:	e9 f0 00 00 00       	jmpq   402951 <submitr+0x587>
  402861:	48 b8 45 72 72 6f 72 	mov    $0x43203a726f727245,%rax
  402868:	3a 20 43 
  40286b:	48 ba 6c 69 65 6e 74 	mov    $0x6e7520746e65696c,%rdx
  402872:	20 75 6e 
  402875:	48 89 45 00          	mov    %rax,0x0(%rbp)
  402879:	48 89 55 08          	mov    %rdx,0x8(%rbp)
  40287d:	48 b8 61 62 6c 65 20 	mov    $0x206f7420656c6261,%rax
  402884:	74 6f 20 
  402887:	48 ba 72 65 61 64 20 	mov    $0x7269662064616572,%rdx
  40288e:	66 69 72 
  402891:	48 89 45 10          	mov    %rax,0x10(%rbp)
  402895:	48 89 55 18          	mov    %rdx,0x18(%rbp)
  402899:	48 b8 73 74 20 68 65 	mov    $0x6564616568207473,%rax
  4028a0:	61 64 65 
  4028a3:	48 ba 72 20 66 72 6f 	mov    $0x72206d6f72662072,%rdx
  4028aa:	6d 20 72 
  4028ad:	48 89 45 20          	mov    %rax,0x20(%rbp)
  4028b1:	48 89 55 28          	mov    %rdx,0x28(%rbp)
  4028b5:	48 b8 65 73 75 6c 74 	mov    $0x657320746c757365,%rax
  4028bc:	20 73 65 
  4028bf:	48 89 45 30          	mov    %rax,0x30(%rbp)
  4028c3:	c7 45 38 72 76 65 72 	movl   $0x72657672,0x38(%rbp)
  4028ca:	c6 45 3c 00          	movb   $0x0,0x3c(%rbp)
  4028ce:	89 df                	mov    %ebx,%edi
  4028d0:	e8 b3 e3 ff ff       	callq  400c88 <close@plt>
  4028d5:	b8 ff ff ff ff       	mov    $0xffffffff,%eax
  4028da:	eb 75                	jmp    402951 <submitr+0x587>
  4028dc:	48 b8 45 72 72 6f 72 	mov    $0x43203a726f727245,%rax
  4028e3:	3a 20 43 
  4028e6:	48 ba 6c 69 65 6e 74 	mov    $0x6e7520746e65696c,%rdx
  4028ed:	20 75 6e 
  4028f0:	48 89 45 00          	mov    %rax,0x0(%rbp)
  4028f4:	48 89 55 08          	mov    %rdx,0x8(%rbp)
  4028f8:	48 b8 61 62 6c 65 20 	mov    $0x206f7420656c6261,%rax
  4028ff:	74 6f 20 
  402902:	48 ba 72 65 61 64 20 	mov    $0x6165682064616572,%rdx
  402909:	68 65 61 
  40290c:	48 89 45 10          	mov    %rax,0x10(%rbp)
  402910:	48 89 55 18          	mov    %rdx,0x18(%rbp)
  402914:	48 b8 64 65 72 73 20 	mov    $0x6f72662073726564,%rax
  40291b:	66 72 6f 
  40291e:	48 ba 6d 20 74 68 65 	mov    $0x657220656874206d,%rdx
  402925:	20 72 65 
  402928:	48 89 45 20          	mov    %rax,0x20(%rbp)
  40292c:	48 89 55 28          	mov    %rdx,0x28(%rbp)
  402930:	48 b8 73 75 6c 74 20 	mov    $0x72657320746c7573,%rax
  402937:	73 65 72 
  40293a:	48 89 45 30          	mov    %rax,0x30(%rbp)
  40293e:	c7 45 38 76 65 72 00 	movl   $0x726576,0x38(%rbp)
  402945:	89 df                	mov    %ebx,%edi
  402947:	e8 3c e3 ff ff       	callq  400c88 <close@plt>
  40294c:	b8 ff ff ff ff       	mov    $0xffffffff,%eax
  402951:	48 81 c4 48 a0 00 00 	add    $0xa048,%rsp
  402958:	5b                   	pop    %rbx
  402959:	5d                   	pop    %rbp
  40295a:	41 5c                	pop    %r12
  40295c:	41 5d                	pop    %r13
  40295e:	41 5e                	pop    %r14
  402960:	41 5f                	pop    %r15
  402962:	c3                   	retq   
  402963:	85 c0                	test   %eax,%eax
  402965:	74 47                	je     4029ae <submitr+0x5e4>
  402967:	ba 00 20 00 00       	mov    $0x2000,%edx
  40296c:	48 8d b4 24 20 60 00 	lea    0x6020(%rsp),%rsi
  402973:	00 
  402974:	48 8d bc 24 20 80 00 	lea    0x8020(%rsp),%rdi
  40297b:	00 
  40297c:	e8 ca f9 ff ff       	callq  40234b <rio_readlineb>
  402981:	48 85 c0             	test   %rax,%rax
  402984:	0f 8e 52 ff ff ff    	jle    4028dc <submitr+0x512>
  40298a:	0f b6 84 24 20 60 00 	movzbl 0x6020(%rsp),%eax
  402991:	00 
  402992:	83 e8 0d             	sub    $0xd,%eax
  402995:	75 cc                	jne    402963 <submitr+0x599>
  402997:	0f b6 84 24 21 60 00 	movzbl 0x6021(%rsp),%eax
  40299e:	00 
  40299f:	83 e8 0a             	sub    $0xa,%eax
  4029a2:	75 bf                	jne    402963 <submitr+0x599>
  4029a4:	0f b6 84 24 22 60 00 	movzbl 0x6022(%rsp),%eax
  4029ab:	00 
  4029ac:	eb b5                	jmp    402963 <submitr+0x599>
  4029ae:	ba 00 20 00 00       	mov    $0x2000,%edx
  4029b3:	48 8d b4 24 20 60 00 	lea    0x6020(%rsp),%rsi
  4029ba:	00 
  4029bb:	48 8d bc 24 20 80 00 	lea    0x8020(%rsp),%rdi
  4029c2:	00 
  4029c3:	e8 83 f9 ff ff       	callq  40234b <rio_readlineb>
  4029c8:	48 85 c0             	test   %rax,%rax
  4029cb:	0f 8e 97 00 00 00    	jle    402a68 <submitr+0x69e>
  4029d1:	8b 94 24 1c 20 00 00 	mov    0x201c(%rsp),%edx
  4029d8:	81 fa c8 00 00 00    	cmp    $0xc8,%edx
  4029de:	0f 85 08 01 00 00    	jne    402aec <submitr+0x722>
  4029e4:	48 8d b4 24 20 60 00 	lea    0x6020(%rsp),%rsi
  4029eb:	00 
  4029ec:	48 89 ef             	mov    %rbp,%rdi
  4029ef:	e8 04 e4 ff ff       	callq  400df8 <strcpy@plt>
  4029f4:	89 df                	mov    %ebx,%edi
  4029f6:	e8 8d e2 ff ff       	callq  400c88 <close@plt>
  4029fb:	0f b6 45 00          	movzbl 0x0(%rbp),%eax
  4029ff:	83 e8 4f             	sub    $0x4f,%eax
  402a02:	89 c2                	mov    %eax,%edx
  402a04:	75 16                	jne    402a1c <submitr+0x652>
  402a06:	0f b6 45 01          	movzbl 0x1(%rbp),%eax
  402a0a:	83 e8 4b             	sub    $0x4b,%eax
  402a0d:	75 0d                	jne    402a1c <submitr+0x652>
  402a0f:	0f b6 45 02          	movzbl 0x2(%rbp),%eax
  402a13:	83 e8 0a             	sub    $0xa,%eax
  402a16:	75 04                	jne    402a1c <submitr+0x652>
  402a18:	0f b6 45 03          	movzbl 0x3(%rbp),%eax
  402a1c:	85 c0                	test   %eax,%eax
  402a1e:	0f 84 2d ff ff ff    	je     402951 <submitr+0x587>
  402a24:	bf 40 39 40 00       	mov    $0x403940,%edi
  402a29:	b9 05 00 00 00       	mov    $0x5,%ecx
  402a2e:	48 89 ee             	mov    %rbp,%rsi
  402a31:	f3 a6                	repz cmpsb %es:(%rdi),%ds:(%rsi)
  402a33:	0f 97 c0             	seta   %al
  402a36:	0f 92 c1             	setb   %cl
  402a39:	29 c8                	sub    %ecx,%eax
  402a3b:	0f be c0             	movsbl %al,%eax
  402a3e:	85 c0                	test   %eax,%eax
  402a40:	0f 84 0b ff ff ff    	je     402951 <submitr+0x587>
  402a46:	85 d2                	test   %edx,%edx
  402a48:	75 0f                	jne    402a59 <submitr+0x68f>
  402a4a:	0f b6 45 01          	movzbl 0x1(%rbp),%eax
  402a4e:	83 e8 4b             	sub    $0x4b,%eax
  402a51:	89 c2                	mov    %eax,%edx
  402a53:	75 04                	jne    402a59 <submitr+0x68f>
  402a55:	0f b6 55 02          	movzbl 0x2(%rbp),%edx
  402a59:	85 d2                	test   %edx,%edx
  402a5b:	0f 85 b3 00 00 00    	jne    402b14 <submitr+0x74a>
  402a61:	89 d0                	mov    %edx,%eax
  402a63:	e9 e9 fe ff ff       	jmpq   402951 <submitr+0x587>
  402a68:	48 b8 45 72 72 6f 72 	mov    $0x43203a726f727245,%rax
  402a6f:	3a 20 43 
  402a72:	48 ba 6c 69 65 6e 74 	mov    $0x6e7520746e65696c,%rdx
  402a79:	20 75 6e 
  402a7c:	48 89 45 00          	mov    %rax,0x0(%rbp)
  402a80:	48 89 55 08          	mov    %rdx,0x8(%rbp)
  402a84:	48 b8 61 62 6c 65 20 	mov    $0x206f7420656c6261,%rax
  402a8b:	74 6f 20 
  402a8e:	48 ba 72 65 61 64 20 	mov    $0x6174732064616572,%rdx
  402a95:	73 74 61 
  402a98:	48 89 45 10          	mov    %rax,0x10(%rbp)
  402a9c:	48 89 55 18          	mov    %rdx,0x18(%rbp)
  402aa0:	48 b8 74 75 73 20 6d 	mov    $0x7373656d20737574,%rax
  402aa7:	65 73 73 
  402aaa:	48 ba 61 67 65 20 66 	mov    $0x6d6f726620656761,%rdx
  402ab1:	72 6f 6d 
  402ab4:	48 89 45 20          	mov    %rax,0x20(%rbp)
  402ab8:	48 89 55 28          	mov    %rdx,0x28(%rbp)
  402abc:	48 b8 20 72 65 73 75 	mov    $0x20746c7573657220,%rax
  402ac3:	6c 74 20 
  402ac6:	48 89 45 30          	mov    %rax,0x30(%rbp)
  402aca:	c7 45 38 73 65 72 76 	movl   $0x76726573,0x38(%rbp)
  402ad1:	66 c7 45 3c 65 72    	movw   $0x7265,0x3c(%rbp)
  402ad7:	c6 45 3e 00          	movb   $0x0,0x3e(%rbp)
  402adb:	89 df                	mov    %ebx,%edi
  402add:	e8 a6 e1 ff ff       	callq  400c88 <close@plt>
  402ae2:	b8 ff ff ff ff       	mov    $0xffffffff,%eax
  402ae7:	e9 65 fe ff ff       	jmpq   402951 <submitr+0x587>
  402aec:	48 8d 4c 24 10       	lea    0x10(%rsp),%rcx
  402af1:	be f8 38 40 00       	mov    $0x4038f8,%esi
  402af6:	48 89 ef             	mov    %rbp,%rdi
  402af9:	b8 00 00 00 00       	mov    $0x0,%eax
  402afe:	e8 65 e2 ff ff       	callq  400d68 <sprintf@plt>
  402b03:	89 df                	mov    %ebx,%edi
  402b05:	e8 7e e1 ff ff       	callq  400c88 <close@plt>
  402b0a:	b8 ff ff ff ff       	mov    $0xffffffff,%eax
  402b0f:	e9 3d fe ff ff       	jmpq   402951 <submitr+0x587>
  402b14:	b8 ff ff ff ff       	mov    $0xffffffff,%eax
  402b19:	e9 33 fe ff ff       	jmpq   402951 <submitr+0x587>

0000000000402b1e <init_timeout>:
  402b1e:	85 ff                	test   %edi,%edi
  402b20:	74 26                	je     402b48 <init_timeout+0x2a>
  402b22:	53                   	push   %rbx
  402b23:	89 fb                	mov    %edi,%ebx
  402b25:	85 ff                	test   %edi,%edi
  402b27:	78 18                	js     402b41 <init_timeout+0x23>
  402b29:	be 5e 21 40 00       	mov    $0x40215e,%esi
  402b2e:	bf 0e 00 00 00       	mov    $0xe,%edi
  402b33:	e8 80 e2 ff ff       	callq  400db8 <signal@plt>
  402b38:	89 df                	mov    %ebx,%edi
  402b3a:	e8 99 e2 ff ff       	callq  400dd8 <alarm@plt>
  402b3f:	5b                   	pop    %rbx
  402b40:	c3                   	retq   
  402b41:	bb 00 00 00 00       	mov    $0x0,%ebx
  402b46:	eb e1                	jmp    402b29 <init_timeout+0xb>
  402b48:	f3 c3                	repz retq 

0000000000402b4a <init_driver>:
  402b4a:	55                   	push   %rbp
  402b4b:	53                   	push   %rbx
  402b4c:	48 83 ec 18          	sub    $0x18,%rsp
  402b50:	48 89 fd             	mov    %rdi,%rbp
  402b53:	be 01 00 00 00       	mov    $0x1,%esi
  402b58:	bf 0d 00 00 00       	mov    $0xd,%edi
  402b5d:	e8 56 e2 ff ff       	callq  400db8 <signal@plt>
  402b62:	be 01 00 00 00       	mov    $0x1,%esi
  402b67:	bf 1d 00 00 00       	mov    $0x1d,%edi
  402b6c:	e8 47 e2 ff ff       	callq  400db8 <signal@plt>
  402b71:	be 01 00 00 00       	mov    $0x1,%esi
  402b76:	bf 1d 00 00 00       	mov    $0x1d,%edi
  402b7b:	e8 38 e2 ff ff       	callq  400db8 <signal@plt>
  402b80:	ba 00 00 00 00       	mov    $0x0,%edx
  402b85:	be 01 00 00 00       	mov    $0x1,%esi
  402b8a:	bf 02 00 00 00       	mov    $0x2,%edi
  402b8f:	e8 34 e2 ff ff       	callq  400dc8 <socket@plt>
  402b94:	85 c0                	test   %eax,%eax
  402b96:	78 7c                	js     402c14 <init_driver+0xca>
  402b98:	89 c3                	mov    %eax,%ebx
  402b9a:	bf 25 34 40 00       	mov    $0x403425,%edi
  402b9f:	e8 f4 e0 ff ff       	callq  400c98 <gethostbyname@plt>
  402ba4:	48 85 c0             	test   %rax,%rax
  402ba7:	0f 84 b3 00 00 00    	je     402c60 <init_driver+0x116>
  402bad:	48 c7 04 24 00 00 00 	movq   $0x0,(%rsp)
  402bb4:	00 
  402bb5:	48 c7 44 24 08 00 00 	movq   $0x0,0x8(%rsp)
  402bbc:	00 00 
  402bbe:	66 c7 04 24 02 00    	movw   $0x2,(%rsp)
  402bc4:	48 8b 48 18          	mov    0x18(%rax),%rcx
  402bc8:	48 63 50 14          	movslq 0x14(%rax),%rdx
  402bcc:	48 8d 74 24 04       	lea    0x4(%rsp),%rsi
  402bd1:	48 8b 39             	mov    (%rcx),%rdi
  402bd4:	e8 7f e1 ff ff       	callq  400d58 <bcopy@plt>
  402bd9:	66 c7 44 24 02 3c 9a 	movw   $0x9a3c,0x2(%rsp)
  402be0:	ba 10 00 00 00       	mov    $0x10,%edx
  402be5:	48 89 e6             	mov    %rsp,%rsi
  402be8:	89 df                	mov    %ebx,%edi
  402bea:	e8 99 e1 ff ff       	callq  400d88 <connect@plt>
  402bef:	85 c0                	test   %eax,%eax
  402bf1:	0f 88 d1 00 00 00    	js     402cc8 <init_driver+0x17e>
  402bf7:	89 df                	mov    %ebx,%edi
  402bf9:	e8 8a e0 ff ff       	callq  400c88 <close@plt>
  402bfe:	66 c7 45 00 4f 4b    	movw   $0x4b4f,0x0(%rbp)
  402c04:	c6 45 02 00          	movb   $0x0,0x2(%rbp)
  402c08:	b8 00 00 00 00       	mov    $0x0,%eax
  402c0d:	48 83 c4 18          	add    $0x18,%rsp
  402c11:	5b                   	pop    %rbx
  402c12:	5d                   	pop    %rbp
  402c13:	c3                   	retq   
  402c14:	48 b8 45 72 72 6f 72 	mov    $0x43203a726f727245,%rax
  402c1b:	3a 20 43 
  402c1e:	48 ba 6c 69 65 6e 74 	mov    $0x6e7520746e65696c,%rdx
  402c25:	20 75 6e 
  402c28:	48 89 45 00          	mov    %rax,0x0(%rbp)
  402c2c:	48 89 55 08          	mov    %rdx,0x8(%rbp)
  402c30:	48 b8 61 62 6c 65 20 	mov    $0x206f7420656c6261,%rax
  402c37:	74 6f 20 
  402c3a:	48 ba 63 72 65 61 74 	mov    $0x7320657461657263,%rdx
  402c41:	65 20 73 
  402c44:	48 89 45 10          	mov    %rax,0x10(%rbp)
  402c48:	48 89 55 18          	mov    %rdx,0x18(%rbp)
  402c4c:	c7 45 20 6f 63 6b 65 	movl   $0x656b636f,0x20(%rbp)
  402c53:	66 c7 45 24 74 00    	movw   $0x74,0x24(%rbp)
  402c59:	b8 ff ff ff ff       	mov    $0xffffffff,%eax
  402c5e:	eb ad                	jmp    402c0d <init_driver+0xc3>
  402c60:	48 b8 45 72 72 6f 72 	mov    $0x44203a726f727245,%rax
  402c67:	3a 20 44 
  402c6a:	48 ba 4e 53 20 69 73 	mov    $0x6e7520736920534e,%rdx
  402c71:	20 75 6e 
  402c74:	48 89 45 00          	mov    %rax,0x0(%rbp)
  402c78:	48 89 55 08          	mov    %rdx,0x8(%rbp)
  402c7c:	48 b8 61 62 6c 65 20 	mov    $0x206f7420656c6261,%rax
  402c83:	74 6f 20 
  402c86:	48 ba 72 65 73 6f 6c 	mov    $0x2065766c6f736572,%rdx
  402c8d:	76 65 20 
  402c90:	48 89 45 10          	mov    %rax,0x10(%rbp)
  402c94:	48 89 55 18          	mov    %rdx,0x18(%rbp)
  402c98:	48 b8 73 65 72 76 65 	mov    $0x6120726576726573,%rax
  402c9f:	72 20 61 
  402ca2:	48 89 45 20          	mov    %rax,0x20(%rbp)
  402ca6:	c7 45 28 64 64 72 65 	movl   $0x65726464,0x28(%rbp)
  402cad:	66 c7 45 2c 73 73    	movw   $0x7373,0x2c(%rbp)
  402cb3:	c6 45 2e 00          	movb   $0x0,0x2e(%rbp)
  402cb7:	89 df                	mov    %ebx,%edi
  402cb9:	e8 ca df ff ff       	callq  400c88 <close@plt>
  402cbe:	b8 ff ff ff ff       	mov    $0xffffffff,%eax
  402cc3:	e9 45 ff ff ff       	jmpq   402c0d <init_driver+0xc3>
  402cc8:	48 b8 45 72 72 6f 72 	mov    $0x55203a726f727245,%rax
  402ccf:	3a 20 55 
  402cd2:	48 ba 6e 61 62 6c 65 	mov    $0x6f7420656c62616e,%rdx
  402cd9:	20 74 6f 
  402cdc:	48 89 45 00          	mov    %rax,0x0(%rbp)
  402ce0:	48 89 55 08          	mov    %rdx,0x8(%rbp)
  402ce4:	48 b8 20 63 6f 6e 6e 	mov    $0x7463656e6e6f6320,%rax
  402ceb:	65 63 74 
  402cee:	48 ba 20 74 6f 20 73 	mov    $0x76726573206f7420,%rdx
  402cf5:	65 72 76 
  402cf8:	48 89 45 10          	mov    %rax,0x10(%rbp)
  402cfc:	48 89 55 18          	mov    %rdx,0x18(%rbp)
  402d00:	66 c7 45 20 65 72    	movw   $0x7265,0x20(%rbp)
  402d06:	c6 45 22 00          	movb   $0x0,0x22(%rbp)
  402d0a:	89 df                	mov    %ebx,%edi
  402d0c:	e8 77 df ff ff       	callq  400c88 <close@plt>
  402d11:	b8 ff ff ff ff       	mov    $0xffffffff,%eax
  402d16:	e9 f2 fe ff ff       	jmpq   402c0d <init_driver+0xc3>

0000000000402d1b <driver_post>:
  402d1b:	53                   	push   %rbx
  402d1c:	4c 89 cb             	mov    %r9,%rbx
  402d1f:	45 85 c0             	test   %r8d,%r8d
  402d22:	75 18                	jne    402d3c <driver_post+0x21>
  402d24:	48 85 ff             	test   %rdi,%rdi
  402d27:	74 05                	je     402d2e <driver_post+0x13>
  402d29:	80 3f 00             	cmpb   $0x0,(%rdi)
  402d2c:	75 30                	jne    402d5e <driver_post+0x43>
  402d2e:	66 c7 03 4f 4b       	movw   $0x4b4f,(%rbx)
  402d33:	c6 43 02 00          	movb   $0x0,0x2(%rbx)
  402d37:	44 89 c0             	mov    %r8d,%eax
  402d3a:	5b                   	pop    %rbx
  402d3b:	c3                   	retq   
  402d3c:	48 89 ce             	mov    %rcx,%rsi
  402d3f:	bf 45 39 40 00       	mov    $0x403945,%edi
  402d44:	b8 00 00 00 00       	mov    $0x0,%eax
  402d49:	e8 1a df ff ff       	callq  400c68 <printf@plt>
  402d4e:	66 c7 03 4f 4b       	movw   $0x4b4f,(%rbx)
  402d53:	c6 43 02 00          	movb   $0x0,0x2(%rbx)
  402d57:	b8 00 00 00 00       	mov    $0x0,%eax
  402d5c:	eb dc                	jmp    402d3a <driver_post+0x1f>
  402d5e:	48 83 ec 08          	sub    $0x8,%rsp
  402d62:	41 51                	push   %r9
  402d64:	49 89 c9             	mov    %rcx,%r9
  402d67:	49 89 d0             	mov    %rdx,%r8
  402d6a:	48 89 f9             	mov    %rdi,%rcx
  402d6d:	48 89 f2             	mov    %rsi,%rdx
  402d70:	be 9a 3c 00 00       	mov    $0x3c9a,%esi
  402d75:	bf 25 34 40 00       	mov    $0x403425,%edi
  402d7a:	e8 4b f6 ff ff       	callq  4023ca <submitr>
  402d7f:	48 83 c4 10          	add    $0x10,%rsp
  402d83:	eb b5                	jmp    402d3a <driver_post+0x1f>
  402d85:	90                   	nop
  402d86:	90                   	nop
  402d87:	90                   	nop

0000000000402d88 <check>:
  402d88:	89 f8                	mov    %edi,%eax
  402d8a:	c1 e8 1c             	shr    $0x1c,%eax
  402d8d:	85 c0                	test   %eax,%eax
  402d8f:	74 1d                	je     402dae <check+0x26>
  402d91:	b9 00 00 00 00       	mov    $0x0,%ecx
  402d96:	83 f9 1f             	cmp    $0x1f,%ecx
  402d99:	7f 0d                	jg     402da8 <check+0x20>
  402d9b:	89 f8                	mov    %edi,%eax
  402d9d:	d3 e8                	shr    %cl,%eax
  402d9f:	3c 0a                	cmp    $0xa,%al
  402da1:	74 11                	je     402db4 <check+0x2c>
  402da3:	83 c1 08             	add    $0x8,%ecx
  402da6:	eb ee                	jmp    402d96 <check+0xe>
  402da8:	b8 01 00 00 00       	mov    $0x1,%eax
  402dad:	c3                   	retq   
  402dae:	b8 00 00 00 00       	mov    $0x0,%eax
  402db3:	c3                   	retq   
  402db4:	b8 00 00 00 00       	mov    $0x0,%eax
  402db9:	c3                   	retq   

0000000000402dba <gencookie>:
  402dba:	53                   	push   %rbx
  402dbb:	83 c7 01             	add    $0x1,%edi
  402dbe:	e8 75 df ff ff       	callq  400d38 <srandom@plt>
  402dc3:	e8 50 e0 ff ff       	callq  400e18 <random@plt>
  402dc8:	89 c3                	mov    %eax,%ebx
  402dca:	89 c7                	mov    %eax,%edi
  402dcc:	e8 b7 ff ff ff       	callq  402d88 <check>
  402dd1:	85 c0                	test   %eax,%eax
  402dd3:	74 ee                	je     402dc3 <gencookie+0x9>
  402dd5:	89 d8                	mov    %ebx,%eax
  402dd7:	5b                   	pop    %rbx
  402dd8:	c3                   	retq   
  402dd9:	90                   	nop
  402dda:	90                   	nop
  402ddb:	90                   	nop
  402ddc:	90                   	nop
  402ddd:	90                   	nop
  402dde:	90                   	nop
  402ddf:	90                   	nop

0000000000402de0 <__libc_csu_fini>:
  402de0:	f3 c3                	repz retq 
  402de2:	66 66 66 66 66 2e 0f 	data32 data32 data32 data32 nopw %cs:0x0(%rax,%rax,1)
  402de9:	1f 84 00 00 00 00 00 

0000000000402df0 <__libc_csu_init>:
  402df0:	48 89 6c 24 d8       	mov    %rbp,-0x28(%rsp)
  402df5:	4c 89 64 24 e0       	mov    %r12,-0x20(%rsp)
  402dfa:	48 8d 2d 83 17 20 00 	lea    0x201783(%rip),%rbp        # 604584 <__init_array_end>
  402e01:	4c 8d 25 7c 17 20 00 	lea    0x20177c(%rip),%r12        # 604584 <__init_array_end>
  402e08:	4c 89 6c 24 e8       	mov    %r13,-0x18(%rsp)
  402e0d:	4c 89 74 24 f0       	mov    %r14,-0x10(%rsp)
  402e12:	4c 89 7c 24 f8       	mov    %r15,-0x8(%rsp)
  402e17:	48 89 5c 24 d0       	mov    %rbx,-0x30(%rsp)
  402e1c:	48 83 ec 38          	sub    $0x38,%rsp
  402e20:	4c 29 e5             	sub    %r12,%rbp
  402e23:	41 89 fd             	mov    %edi,%r13d
  402e26:	49 89 f6             	mov    %rsi,%r14
  402e29:	48 c1 fd 03          	sar    $0x3,%rbp
  402e2d:	49 89 d7             	mov    %rdx,%r15
  402e30:	e8 0b de ff ff       	callq  400c40 <_init>
  402e35:	48 85 ed             	test   %rbp,%rbp
  402e38:	74 1c                	je     402e56 <__libc_csu_init+0x66>
  402e3a:	31 db                	xor    %ebx,%ebx
  402e3c:	0f 1f 40 00          	nopl   0x0(%rax)
  402e40:	4c 89 fa             	mov    %r15,%rdx
  402e43:	4c 89 f6             	mov    %r14,%rsi
  402e46:	44 89 ef             	mov    %r13d,%edi
  402e49:	41 ff 14 dc          	callq  *(%r12,%rbx,8)
  402e4d:	48 83 c3 01          	add    $0x1,%rbx
  402e51:	48 39 eb             	cmp    %rbp,%rbx
  402e54:	72 ea                	jb     402e40 <__libc_csu_init+0x50>
  402e56:	48 8b 5c 24 08       	mov    0x8(%rsp),%rbx
  402e5b:	48 8b 6c 24 10       	mov    0x10(%rsp),%rbp
  402e60:	4c 8b 64 24 18       	mov    0x18(%rsp),%r12
  402e65:	4c 8b 6c 24 20       	mov    0x20(%rsp),%r13
  402e6a:	4c 8b 74 24 28       	mov    0x28(%rsp),%r14
  402e6f:	4c 8b 7c 24 30       	mov    0x30(%rsp),%r15
  402e74:	48 83 c4 38          	add    $0x38,%rsp
  402e78:	c3                   	retq   
  402e79:	90                   	nop
  402e7a:	90                   	nop
  402e7b:	90                   	nop
  402e7c:	90                   	nop
  402e7d:	90                   	nop
  402e7e:	90                   	nop
  402e7f:	90                   	nop

0000000000402e80 <__do_global_ctors_aux>:
  402e80:	48 8b 05 01 17 20 00 	mov    0x201701(%rip),%rax        # 604588 <__CTOR_LIST__>
  402e87:	48 83 f8 ff          	cmp    $0xffffffffffffffff,%rax
  402e8b:	74 33                	je     402ec0 <__do_global_ctors_aux+0x40>
  402e8d:	55                   	push   %rbp
  402e8e:	48 89 e5             	mov    %rsp,%rbp
  402e91:	53                   	push   %rbx
  402e92:	bb 88 45 60 00       	mov    $0x604588,%ebx
  402e97:	48 83 ec 08          	sub    $0x8,%rsp
  402e9b:	0f 1f 44 00 00       	nopl   0x0(%rax,%rax,1)
  402ea0:	48 83 eb 08          	sub    $0x8,%rbx
  402ea4:	ff d0                	callq  *%rax
  402ea6:	48 8b 03             	mov    (%rbx),%rax
  402ea9:	48 83 f8 ff          	cmp    $0xffffffffffffffff,%rax
  402ead:	75 f1                	jne    402ea0 <__do_global_ctors_aux+0x20>
  402eaf:	48 83 c4 08          	add    $0x8,%rsp
  402eb3:	5b                   	pop    %rbx
  402eb4:	5d                   	pop    %rbp
  402eb5:	c3                   	retq   
  402eb6:	66 2e 0f 1f 84 00 00 	nopw   %cs:0x0(%rax,%rax,1)
  402ebd:	00 00 00 
  402ec0:	f3 c3                	repz retq 
  402ec2:	90                   	nop
  402ec3:	90                   	nop

Disassembly of section .fini:

0000000000402ec4 <_fini>:
  402ec4:	48 83 ec 08          	sub    $0x8,%rsp
  402ec8:	e8 73 e0 ff ff       	callq  400f40 <__do_global_dtors_aux>
  402ecd:	48 83 c4 08          	add    $0x8,%rsp
  402ed1:	c3                   	retq   
